ARM GAS  C:\Users\rdso323\AppData\Local\Temp\ccLWNhlm.s 			page 1


   1              		.syntax unified
   2              		.cpu cortex-m3
   3              		.fpu softvfp
   4              		.eabi_attribute 20, 1
   5              		.eabi_attribute 21, 1
   6              		.eabi_attribute 23, 3
   7              		.eabi_attribute 24, 1
   8              		.eabi_attribute 25, 1
   9              		.eabi_attribute 26, 1
  10              		.eabi_attribute 30, 6
  11              		.eabi_attribute 34, 1
  12              		.eabi_attribute 18, 4
  13              		.thumb
  14              		.file	"ADC_PM.c"
  15              		.text
  16              	.Ltext0:
  17              		.cfi_sections	.debug_frame
  18              		.section	.text.ADC_Sleep,"ax",%progbits
  19              		.align	2
  20              		.global	ADC_Sleep
  21              		.thumb
  22              		.thumb_func
  23              		.type	ADC_Sleep, %function
  24              	ADC_Sleep:
  25              	.LFB0:
  26              		.file 1 ".\\Generated_Source\\PSoC5\\ADC_PM.c"
   1:.\Generated_Source\PSoC5/ADC_PM.c **** /*******************************************************************************
   2:.\Generated_Source\PSoC5/ADC_PM.c **** * File Name: ADC_PM.c
   3:.\Generated_Source\PSoC5/ADC_PM.c **** * Version 2.0
   4:.\Generated_Source\PSoC5/ADC_PM.c **** *
   5:.\Generated_Source\PSoC5/ADC_PM.c **** * Description:
   6:.\Generated_Source\PSoC5/ADC_PM.c **** *  This file contains the setup, control and status commands to support
   7:.\Generated_Source\PSoC5/ADC_PM.c **** *  component operations in low power mode.
   8:.\Generated_Source\PSoC5/ADC_PM.c **** *
   9:.\Generated_Source\PSoC5/ADC_PM.c **** * Note:
  10:.\Generated_Source\PSoC5/ADC_PM.c **** *
  11:.\Generated_Source\PSoC5/ADC_PM.c **** ********************************************************************************
  12:.\Generated_Source\PSoC5/ADC_PM.c **** * Copyright 2012-2015, Cypress Semiconductor Corporation.  All rights reserved.
  13:.\Generated_Source\PSoC5/ADC_PM.c **** * You may use this file only in accordance with the license, terms, conditions,
  14:.\Generated_Source\PSoC5/ADC_PM.c **** * disclaimers, and limitations in the end user license agreement accompanying
  15:.\Generated_Source\PSoC5/ADC_PM.c **** * the software package with which this file was provided.
  16:.\Generated_Source\PSoC5/ADC_PM.c **** *******************************************************************************/
  17:.\Generated_Source\PSoC5/ADC_PM.c **** 
  18:.\Generated_Source\PSoC5/ADC_PM.c **** #include "ADC.h"
  19:.\Generated_Source\PSoC5/ADC_PM.c **** #include "ADC_SAR.h"
  20:.\Generated_Source\PSoC5/ADC_PM.c **** #if(ADC_CLOCK_SOURCE == ADC_CLOCK_INTERNAL)
  21:.\Generated_Source\PSoC5/ADC_PM.c ****     #include "ADC_IntClock.h"
  22:.\Generated_Source\PSoC5/ADC_PM.c **** #endif   /* ADC_CLOCK_SOURCE == ADC_CLOCK_INTERNAL */
  23:.\Generated_Source\PSoC5/ADC_PM.c **** 
  24:.\Generated_Source\PSoC5/ADC_PM.c **** 
  25:.\Generated_Source\PSoC5/ADC_PM.c **** /*******************************************************************************
  26:.\Generated_Source\PSoC5/ADC_PM.c **** * Function Name: ADC_Sleep
  27:.\Generated_Source\PSoC5/ADC_PM.c **** ********************************************************************************
  28:.\Generated_Source\PSoC5/ADC_PM.c **** *
  29:.\Generated_Source\PSoC5/ADC_PM.c **** * Summary:
  30:.\Generated_Source\PSoC5/ADC_PM.c **** *  Stops the ADC operation and saves the configuration registers and component
  31:.\Generated_Source\PSoC5/ADC_PM.c **** *  enable state. Should be called just prior to entering sleep
ARM GAS  C:\Users\rdso323\AppData\Local\Temp\ccLWNhlm.s 			page 2


  32:.\Generated_Source\PSoC5/ADC_PM.c **** *
  33:.\Generated_Source\PSoC5/ADC_PM.c **** * Parameters:
  34:.\Generated_Source\PSoC5/ADC_PM.c **** *  None.
  35:.\Generated_Source\PSoC5/ADC_PM.c **** *
  36:.\Generated_Source\PSoC5/ADC_PM.c **** * Return:
  37:.\Generated_Source\PSoC5/ADC_PM.c **** *  None.
  38:.\Generated_Source\PSoC5/ADC_PM.c **** *
  39:.\Generated_Source\PSoC5/ADC_PM.c **** * Side Effects:
  40:.\Generated_Source\PSoC5/ADC_PM.c **** *  None.
  41:.\Generated_Source\PSoC5/ADC_PM.c **** *
  42:.\Generated_Source\PSoC5/ADC_PM.c **** * Reentrant:
  43:.\Generated_Source\PSoC5/ADC_PM.c **** *  No.
  44:.\Generated_Source\PSoC5/ADC_PM.c **** *
  45:.\Generated_Source\PSoC5/ADC_PM.c **** *******************************************************************************/
  46:.\Generated_Source\PSoC5/ADC_PM.c **** void ADC_Sleep(void)
  47:.\Generated_Source\PSoC5/ADC_PM.c **** {
  27              		.loc 1 47 0
  28              		.cfi_startproc
  29              		@ args = 0, pretend = 0, frame = 0
  30              		@ frame_needed = 1, uses_anonymous_args = 0
  31 0000 80B5     		push	{r7, lr}
  32              		.cfi_def_cfa_offset 8
  33              		.cfi_offset 7, -8
  34              		.cfi_offset 14, -4
  35 0002 00AF     		add	r7, sp, #0
  36              		.cfi_def_cfa_register 7
  48:.\Generated_Source\PSoC5/ADC_PM.c ****     ADC_SAR_Stop();
  37              		.loc 1 48 0
  38 0004 FFF7FEFF 		bl	ADC_SAR_Stop
  49:.\Generated_Source\PSoC5/ADC_PM.c ****     ADC_SAR_Sleep();
  39              		.loc 1 49 0
  40 0008 FFF7FEFF 		bl	ADC_SAR_Sleep
  50:.\Generated_Source\PSoC5/ADC_PM.c ****     ADC_Disable();
  41              		.loc 1 50 0
  42 000c FFF7FEFF 		bl	ADC_Disable
  51:.\Generated_Source\PSoC5/ADC_PM.c **** 
  52:.\Generated_Source\PSoC5/ADC_PM.c ****     #if(ADC_CLOCK_SOURCE == ADC_CLOCK_INTERNAL)
  53:.\Generated_Source\PSoC5/ADC_PM.c ****         ADC_IntClock_Stop();
  43              		.loc 1 53 0
  44 0010 FFF7FEFF 		bl	ADC_IntClock_Stop
  54:.\Generated_Source\PSoC5/ADC_PM.c ****     #endif   /* ADC_CLOCK_SOURCE == ADC_CLOCK_INTERNAL */
  55:.\Generated_Source\PSoC5/ADC_PM.c **** }
  45              		.loc 1 55 0
  46 0014 80BD     		pop	{r7, pc}
  47              		.cfi_endproc
  48              	.LFE0:
  49              		.size	ADC_Sleep, .-ADC_Sleep
  50 0016 00BF     		.section	.text.ADC_Wakeup,"ax",%progbits
  51              		.align	2
  52              		.global	ADC_Wakeup
  53              		.thumb
  54              		.thumb_func
  55              		.type	ADC_Wakeup, %function
  56              	ADC_Wakeup:
  57              	.LFB1:
  56:.\Generated_Source\PSoC5/ADC_PM.c **** 
  57:.\Generated_Source\PSoC5/ADC_PM.c **** 
ARM GAS  C:\Users\rdso323\AppData\Local\Temp\ccLWNhlm.s 			page 3


  58:.\Generated_Source\PSoC5/ADC_PM.c **** /*******************************************************************************
  59:.\Generated_Source\PSoC5/ADC_PM.c **** * Function Name: ADC_Wakeup
  60:.\Generated_Source\PSoC5/ADC_PM.c **** ********************************************************************************
  61:.\Generated_Source\PSoC5/ADC_PM.c **** *
  62:.\Generated_Source\PSoC5/ADC_PM.c **** * Summary:
  63:.\Generated_Source\PSoC5/ADC_PM.c **** *  Restores the component enable state and configuration registers. This should
  64:.\Generated_Source\PSoC5/ADC_PM.c **** *  be called just after awaking from sleep mode
  65:.\Generated_Source\PSoC5/ADC_PM.c **** *
  66:.\Generated_Source\PSoC5/ADC_PM.c **** * Parameters:
  67:.\Generated_Source\PSoC5/ADC_PM.c **** *  None.
  68:.\Generated_Source\PSoC5/ADC_PM.c **** *
  69:.\Generated_Source\PSoC5/ADC_PM.c **** * Return:
  70:.\Generated_Source\PSoC5/ADC_PM.c **** *  None.
  71:.\Generated_Source\PSoC5/ADC_PM.c **** *
  72:.\Generated_Source\PSoC5/ADC_PM.c **** * Side Effects:
  73:.\Generated_Source\PSoC5/ADC_PM.c **** *  None.
  74:.\Generated_Source\PSoC5/ADC_PM.c **** *
  75:.\Generated_Source\PSoC5/ADC_PM.c **** * Reentrant:
  76:.\Generated_Source\PSoC5/ADC_PM.c **** *  No.
  77:.\Generated_Source\PSoC5/ADC_PM.c **** *
  78:.\Generated_Source\PSoC5/ADC_PM.c **** *******************************************************************************/
  79:.\Generated_Source\PSoC5/ADC_PM.c **** void ADC_Wakeup(void)
  80:.\Generated_Source\PSoC5/ADC_PM.c **** {
  58              		.loc 1 80 0
  59              		.cfi_startproc
  60              		@ args = 0, pretend = 0, frame = 0
  61              		@ frame_needed = 1, uses_anonymous_args = 0
  62 0000 80B5     		push	{r7, lr}
  63              		.cfi_def_cfa_offset 8
  64              		.cfi_offset 7, -8
  65              		.cfi_offset 14, -4
  66 0002 00AF     		add	r7, sp, #0
  67              		.cfi_def_cfa_register 7
  81:.\Generated_Source\PSoC5/ADC_PM.c ****     ADC_SAR_Wakeup();
  68              		.loc 1 81 0
  69 0004 FFF7FEFF 		bl	ADC_SAR_Wakeup
  82:.\Generated_Source\PSoC5/ADC_PM.c ****     ADC_SAR_Enable();
  70              		.loc 1 82 0
  71 0008 FFF7FEFF 		bl	ADC_SAR_Enable
  83:.\Generated_Source\PSoC5/ADC_PM.c **** 
  84:.\Generated_Source\PSoC5/ADC_PM.c ****     #if(ADC_CLOCK_SOURCE == ADC_CLOCK_INTERNAL)
  85:.\Generated_Source\PSoC5/ADC_PM.c ****         ADC_IntClock_Start();
  72              		.loc 1 85 0
  73 000c FFF7FEFF 		bl	ADC_IntClock_Start
  86:.\Generated_Source\PSoC5/ADC_PM.c ****     #endif   /* ADC_CLOCK_SOURCE == ADC_CLOCK_INTERNAL */
  87:.\Generated_Source\PSoC5/ADC_PM.c **** 
  88:.\Generated_Source\PSoC5/ADC_PM.c ****     /* The block is ready to use 10 us after the SAR enable signal is set high. */
  89:.\Generated_Source\PSoC5/ADC_PM.c ****     CyDelayUs(10u);
  74              		.loc 1 89 0
  75 0010 0A20     		movs	r0, #10
  76 0012 FFF7FEFF 		bl	CyDelayUs
  90:.\Generated_Source\PSoC5/ADC_PM.c ****     
  91:.\Generated_Source\PSoC5/ADC_PM.c ****     ADC_Enable();
  77              		.loc 1 91 0
  78 0016 FFF7FEFF 		bl	ADC_Enable
  92:.\Generated_Source\PSoC5/ADC_PM.c **** 
  93:.\Generated_Source\PSoC5/ADC_PM.c ****     #if(ADC_SAMPLE_MODE == ADC_SAMPLE_MODE_FREE_RUNNING)
ARM GAS  C:\Users\rdso323\AppData\Local\Temp\ccLWNhlm.s 			page 4


  94:.\Generated_Source\PSoC5/ADC_PM.c ****         ADC_SAR_StartConvert();
  79              		.loc 1 94 0
  80 001a FFF7FEFF 		bl	ADC_SAR_StartConvert
  95:.\Generated_Source\PSoC5/ADC_PM.c ****     #endif /* (ADC_SAMPLE_MODE == ADC_SAMPLE_MODE_FREE_RUNNING) */
  96:.\Generated_Source\PSoC5/ADC_PM.c **** 
  97:.\Generated_Source\PSoC5/ADC_PM.c ****     (void) CY_GET_REG8(ADC_STATUS_PTR);
  81              		.loc 1 97 0
  82 001e 014B     		ldr	r3, .L3
  83 0020 1B78     		ldrb	r3, [r3]
  98:.\Generated_Source\PSoC5/ADC_PM.c **** }
  84              		.loc 1 98 0
  85 0022 80BD     		pop	{r7, pc}
  86              	.L4:
  87              		.align	2
  88              	.L3:
  89 0024 6B640040 		.word	1073767531
  90              		.cfi_endproc
  91              	.LFE1:
  92              		.size	ADC_Wakeup, .-ADC_Wakeup
  93              		.section	.text.ADC_SaveConfig,"ax",%progbits
  94              		.align	2
  95              		.global	ADC_SaveConfig
  96              		.thumb
  97              		.thumb_func
  98              		.type	ADC_SaveConfig, %function
  99              	ADC_SaveConfig:
 100              	.LFB2:
  99:.\Generated_Source\PSoC5/ADC_PM.c **** 
 100:.\Generated_Source\PSoC5/ADC_PM.c **** 
 101:.\Generated_Source\PSoC5/ADC_PM.c **** /*******************************************************************************
 102:.\Generated_Source\PSoC5/ADC_PM.c **** * Function Name: ADC_SaveConfig
 103:.\Generated_Source\PSoC5/ADC_PM.c **** ********************************************************************************
 104:.\Generated_Source\PSoC5/ADC_PM.c **** *
 105:.\Generated_Source\PSoC5/ADC_PM.c **** * Summary:
 106:.\Generated_Source\PSoC5/ADC_PM.c **** *  Save the current configuration of ADC non-retention registers
 107:.\Generated_Source\PSoC5/ADC_PM.c **** *
 108:.\Generated_Source\PSoC5/ADC_PM.c **** * Parameters:
 109:.\Generated_Source\PSoC5/ADC_PM.c **** *  None.
 110:.\Generated_Source\PSoC5/ADC_PM.c **** *
 111:.\Generated_Source\PSoC5/ADC_PM.c **** * Return:
 112:.\Generated_Source\PSoC5/ADC_PM.c **** *  None.
 113:.\Generated_Source\PSoC5/ADC_PM.c **** *
 114:.\Generated_Source\PSoC5/ADC_PM.c **** * Side Effects:
 115:.\Generated_Source\PSoC5/ADC_PM.c **** *  None.
 116:.\Generated_Source\PSoC5/ADC_PM.c **** *
 117:.\Generated_Source\PSoC5/ADC_PM.c **** * Reentrant:
 118:.\Generated_Source\PSoC5/ADC_PM.c **** *  No.
 119:.\Generated_Source\PSoC5/ADC_PM.c **** *
 120:.\Generated_Source\PSoC5/ADC_PM.c **** *******************************************************************************/
 121:.\Generated_Source\PSoC5/ADC_PM.c **** void ADC_SaveConfig(void)
 122:.\Generated_Source\PSoC5/ADC_PM.c **** {
 101              		.loc 1 122 0
 102              		.cfi_startproc
 103              		@ args = 0, pretend = 0, frame = 0
 104              		@ frame_needed = 1, uses_anonymous_args = 0
 105              		@ link register save eliminated.
 106 0000 80B4     		push	{r7}
ARM GAS  C:\Users\rdso323\AppData\Local\Temp\ccLWNhlm.s 			page 5


 107              		.cfi_def_cfa_offset 4
 108              		.cfi_offset 7, -4
 109 0002 00AF     		add	r7, sp, #0
 110              		.cfi_def_cfa_register 7
 123:.\Generated_Source\PSoC5/ADC_PM.c **** 
 124:.\Generated_Source\PSoC5/ADC_PM.c **** }
 111              		.loc 1 124 0
 112 0004 BD46     		mov	sp, r7
 113              		.cfi_def_cfa_register 13
 114              		@ sp needed
 115 0006 5DF8047B 		ldr	r7, [sp], #4
 116              		.cfi_restore 7
 117              		.cfi_def_cfa_offset 0
 118 000a 7047     		bx	lr
 119              		.cfi_endproc
 120              	.LFE2:
 121              		.size	ADC_SaveConfig, .-ADC_SaveConfig
 122              		.section	.text.ADC_RestoreConfig,"ax",%progbits
 123              		.align	2
 124              		.global	ADC_RestoreConfig
 125              		.thumb
 126              		.thumb_func
 127              		.type	ADC_RestoreConfig, %function
 128              	ADC_RestoreConfig:
 129              	.LFB3:
 125:.\Generated_Source\PSoC5/ADC_PM.c **** 
 126:.\Generated_Source\PSoC5/ADC_PM.c **** 
 127:.\Generated_Source\PSoC5/ADC_PM.c **** /*******************************************************************************
 128:.\Generated_Source\PSoC5/ADC_PM.c **** * Function Name: ADC_RestoreConfig
 129:.\Generated_Source\PSoC5/ADC_PM.c **** ********************************************************************************
 130:.\Generated_Source\PSoC5/ADC_PM.c **** *
 131:.\Generated_Source\PSoC5/ADC_PM.c **** * Summary:
 132:.\Generated_Source\PSoC5/ADC_PM.c **** *  Restores the configuration of ADC non-retention registers
 133:.\Generated_Source\PSoC5/ADC_PM.c **** *
 134:.\Generated_Source\PSoC5/ADC_PM.c **** * Parameters:
 135:.\Generated_Source\PSoC5/ADC_PM.c **** *  None.
 136:.\Generated_Source\PSoC5/ADC_PM.c **** *
 137:.\Generated_Source\PSoC5/ADC_PM.c **** * Return:
 138:.\Generated_Source\PSoC5/ADC_PM.c **** *  None.
 139:.\Generated_Source\PSoC5/ADC_PM.c **** *
 140:.\Generated_Source\PSoC5/ADC_PM.c **** * Side Effects:
 141:.\Generated_Source\PSoC5/ADC_PM.c **** *  None.
 142:.\Generated_Source\PSoC5/ADC_PM.c **** *
 143:.\Generated_Source\PSoC5/ADC_PM.c **** * Reentrant:
 144:.\Generated_Source\PSoC5/ADC_PM.c **** *  No.
 145:.\Generated_Source\PSoC5/ADC_PM.c **** *
 146:.\Generated_Source\PSoC5/ADC_PM.c **** *******************************************************************************/
 147:.\Generated_Source\PSoC5/ADC_PM.c **** void ADC_RestoreConfig(void)
 148:.\Generated_Source\PSoC5/ADC_PM.c **** {
 130              		.loc 1 148 0
 131              		.cfi_startproc
 132              		@ args = 0, pretend = 0, frame = 0
 133              		@ frame_needed = 1, uses_anonymous_args = 0
 134              		@ link register save eliminated.
 135 0000 80B4     		push	{r7}
 136              		.cfi_def_cfa_offset 4
 137              		.cfi_offset 7, -4
ARM GAS  C:\Users\rdso323\AppData\Local\Temp\ccLWNhlm.s 			page 6


 138 0002 00AF     		add	r7, sp, #0
 139              		.cfi_def_cfa_register 7
 149:.\Generated_Source\PSoC5/ADC_PM.c **** 
 150:.\Generated_Source\PSoC5/ADC_PM.c **** }
 140              		.loc 1 150 0
 141 0004 BD46     		mov	sp, r7
 142              		.cfi_def_cfa_register 13
 143              		@ sp needed
 144 0006 5DF8047B 		ldr	r7, [sp], #4
 145              		.cfi_restore 7
 146              		.cfi_def_cfa_offset 0
 147 000a 7047     		bx	lr
 148              		.cfi_endproc
 149              	.LFE3:
 150              		.size	ADC_RestoreConfig, .-ADC_RestoreConfig
 151              		.text
 152              	.Letext0:
 153              		.file 2 ".\\Generated_Source\\PSoC5\\cytypes.h"