ARM GAS  C:\Users\rdso323\AppData\Local\Temp\ccykTKjP.s 			page 1


   1              		.syntax unified
   2              		.cpu cortex-m3
   3              		.fpu softvfp
   4              		.eabi_attribute 20, 1
   5              		.eabi_attribute 21, 1
   6              		.eabi_attribute 23, 3
   7              		.eabi_attribute 24, 1
   8              		.eabi_attribute 25, 1
   9              		.eabi_attribute 26, 1
  10              		.eabi_attribute 30, 6
  11              		.eabi_attribute 34, 1
  12              		.eabi_attribute 18, 4
  13              		.thumb
  14              		.file	"ADC_SAR.c"
  15              		.text
  16              	.Ltext0:
  17              		.cfi_sections	.debug_frame
  18              		.global	ADC_SAR_initVar
  19              		.bss
  20              		.type	ADC_SAR_initVar, %object
  21              		.size	ADC_SAR_initVar, 1
  22              	ADC_SAR_initVar:
  23 0000 00       		.space	1
  24              		.comm	ADC_SAR_offset,2,2
  25              		.comm	ADC_SAR_countsPerVolt,2,2
  26              		.comm	ADC_SAR_countsPer10Volt,4,4
  27              		.comm	ADC_SAR_shift,2,2
  28              		.section	.text.ADC_SAR_Start,"ax",%progbits
  29              		.align	2
  30              		.global	ADC_SAR_Start
  31              		.thumb
  32              		.thumb_func
  33              		.type	ADC_SAR_Start, %function
  34              	ADC_SAR_Start:
  35              	.LFB0:
  36              		.file 1 ".\\Generated_Source\\PSoC5\\ADC_SAR.c"
   1:.\Generated_Source\PSoC5/ADC_SAR.c **** /*******************************************************************************
   2:.\Generated_Source\PSoC5/ADC_SAR.c **** * File Name: ADC_SAR.c
   3:.\Generated_Source\PSoC5/ADC_SAR.c **** * Version 3.0
   4:.\Generated_Source\PSoC5/ADC_SAR.c **** *
   5:.\Generated_Source\PSoC5/ADC_SAR.c **** * Description:
   6:.\Generated_Source\PSoC5/ADC_SAR.c **** *  This file provides the source code to the API for the Successive
   7:.\Generated_Source\PSoC5/ADC_SAR.c **** *  approximation ADC Component.
   8:.\Generated_Source\PSoC5/ADC_SAR.c **** *
   9:.\Generated_Source\PSoC5/ADC_SAR.c **** * Note:
  10:.\Generated_Source\PSoC5/ADC_SAR.c **** *
  11:.\Generated_Source\PSoC5/ADC_SAR.c **** ********************************************************************************
  12:.\Generated_Source\PSoC5/ADC_SAR.c **** * Copyright 2008-2015, Cypress Semiconductor Corporation.  All rights reserved.
  13:.\Generated_Source\PSoC5/ADC_SAR.c **** * You may use this file only in accordance with the license, terms, conditions,
  14:.\Generated_Source\PSoC5/ADC_SAR.c **** * disclaimers, and limitations in the end user license agreement accompanying
  15:.\Generated_Source\PSoC5/ADC_SAR.c **** * the software package with which this file was provided.
  16:.\Generated_Source\PSoC5/ADC_SAR.c **** *******************************************************************************/
  17:.\Generated_Source\PSoC5/ADC_SAR.c **** 
  18:.\Generated_Source\PSoC5/ADC_SAR.c **** #include "CyLib.h"
  19:.\Generated_Source\PSoC5/ADC_SAR.c **** #include "ADC_SAR.h"
  20:.\Generated_Source\PSoC5/ADC_SAR.c **** 
  21:.\Generated_Source\PSoC5/ADC_SAR.c **** #if(ADC_SAR_DEFAULT_INTERNAL_CLK)
ARM GAS  C:\Users\rdso323\AppData\Local\Temp\ccykTKjP.s 			page 2


  22:.\Generated_Source\PSoC5/ADC_SAR.c ****     #include "ADC_SAR_theACLK.h"
  23:.\Generated_Source\PSoC5/ADC_SAR.c **** #endif /* End ADC_SAR_DEFAULT_INTERNAL_CLK */
  24:.\Generated_Source\PSoC5/ADC_SAR.c **** 
  25:.\Generated_Source\PSoC5/ADC_SAR.c **** 
  26:.\Generated_Source\PSoC5/ADC_SAR.c **** /***************************************
  27:.\Generated_Source\PSoC5/ADC_SAR.c **** * Forward function references
  28:.\Generated_Source\PSoC5/ADC_SAR.c **** ***************************************/
  29:.\Generated_Source\PSoC5/ADC_SAR.c **** static void ADC_SAR_CalcGain(uint8 resolution);
  30:.\Generated_Source\PSoC5/ADC_SAR.c **** 
  31:.\Generated_Source\PSoC5/ADC_SAR.c **** 
  32:.\Generated_Source\PSoC5/ADC_SAR.c **** /***************************************
  33:.\Generated_Source\PSoC5/ADC_SAR.c **** * Global data allocation
  34:.\Generated_Source\PSoC5/ADC_SAR.c **** ***************************************/
  35:.\Generated_Source\PSoC5/ADC_SAR.c **** uint8 ADC_SAR_initVar = 0u;
  36:.\Generated_Source\PSoC5/ADC_SAR.c **** volatile int16 ADC_SAR_offset;
  37:.\Generated_Source\PSoC5/ADC_SAR.c **** volatile int16 ADC_SAR_countsPerVolt;     /* Obsolete Gain compensation */
  38:.\Generated_Source\PSoC5/ADC_SAR.c **** volatile int32 ADC_SAR_countsPer10Volt;   /* Gain compensation */
  39:.\Generated_Source\PSoC5/ADC_SAR.c **** volatile int16 ADC_SAR_shift;
  40:.\Generated_Source\PSoC5/ADC_SAR.c **** 
  41:.\Generated_Source\PSoC5/ADC_SAR.c **** 
  42:.\Generated_Source\PSoC5/ADC_SAR.c **** /*******************************************************************************
  43:.\Generated_Source\PSoC5/ADC_SAR.c **** * Function Name: ADC_SAR_Start
  44:.\Generated_Source\PSoC5/ADC_SAR.c **** ********************************************************************************
  45:.\Generated_Source\PSoC5/ADC_SAR.c **** *
  46:.\Generated_Source\PSoC5/ADC_SAR.c **** * Summary:
  47:.\Generated_Source\PSoC5/ADC_SAR.c **** *  This is the preferred method to begin component operation.
  48:.\Generated_Source\PSoC5/ADC_SAR.c **** *  ADC_SAR_Start() sets the initVar variable, calls the
  49:.\Generated_Source\PSoC5/ADC_SAR.c **** *  ADC_SAR_Init() function, and then calls the
  50:.\Generated_Source\PSoC5/ADC_SAR.c **** *  ADC_SAR_Enable() function.
  51:.\Generated_Source\PSoC5/ADC_SAR.c **** *
  52:.\Generated_Source\PSoC5/ADC_SAR.c **** * Parameters:
  53:.\Generated_Source\PSoC5/ADC_SAR.c **** *  None.
  54:.\Generated_Source\PSoC5/ADC_SAR.c **** *
  55:.\Generated_Source\PSoC5/ADC_SAR.c **** * Return:
  56:.\Generated_Source\PSoC5/ADC_SAR.c **** *  None.
  57:.\Generated_Source\PSoC5/ADC_SAR.c **** *
  58:.\Generated_Source\PSoC5/ADC_SAR.c **** * Global variables:
  59:.\Generated_Source\PSoC5/ADC_SAR.c **** *  The ADC_SAR_initVar variable is used to indicate when/if initial
  60:.\Generated_Source\PSoC5/ADC_SAR.c **** *  configuration of this component has happened. The variable is initialized to
  61:.\Generated_Source\PSoC5/ADC_SAR.c **** *  zero and set to 1 the first time ADC_Start() is called. This allows for
  62:.\Generated_Source\PSoC5/ADC_SAR.c **** *  component Re-Start without re-initialization in all subsequent calls to the
  63:.\Generated_Source\PSoC5/ADC_SAR.c **** *  ADC_SAR_Start() routine.
  64:.\Generated_Source\PSoC5/ADC_SAR.c **** *  If re-initialization of the component is required the variable should be set
  65:.\Generated_Source\PSoC5/ADC_SAR.c **** *  to zero before call of ADC_SAR_Start() routine, or the user may call
  66:.\Generated_Source\PSoC5/ADC_SAR.c **** *  ADC_SAR_Init() and ADC_SAR_Enable() as done in the
  67:.\Generated_Source\PSoC5/ADC_SAR.c **** *  ADC_SAR_Start() routine.
  68:.\Generated_Source\PSoC5/ADC_SAR.c **** *
  69:.\Generated_Source\PSoC5/ADC_SAR.c **** * Side Effect:
  70:.\Generated_Source\PSoC5/ADC_SAR.c **** *  If the initVar variable is already set, this function only calls the
  71:.\Generated_Source\PSoC5/ADC_SAR.c **** *  ADC_SAR_Enable() function.
  72:.\Generated_Source\PSoC5/ADC_SAR.c **** *
  73:.\Generated_Source\PSoC5/ADC_SAR.c **** *******************************************************************************/
  74:.\Generated_Source\PSoC5/ADC_SAR.c **** void ADC_SAR_Start(void)
  75:.\Generated_Source\PSoC5/ADC_SAR.c **** {
  37              		.loc 1 75 0
  38              		.cfi_startproc
  39              		@ args = 0, pretend = 0, frame = 0
ARM GAS  C:\Users\rdso323\AppData\Local\Temp\ccykTKjP.s 			page 3


  40              		@ frame_needed = 1, uses_anonymous_args = 0
  41 0000 80B5     		push	{r7, lr}
  42              		.cfi_def_cfa_offset 8
  43              		.cfi_offset 7, -8
  44              		.cfi_offset 14, -4
  45 0002 00AF     		add	r7, sp, #0
  46              		.cfi_def_cfa_register 7
  76:.\Generated_Source\PSoC5/ADC_SAR.c **** 
  77:.\Generated_Source\PSoC5/ADC_SAR.c ****     /* If not Initialized then initialize all required hardware and software */
  78:.\Generated_Source\PSoC5/ADC_SAR.c ****     if(ADC_SAR_initVar == 0u)
  47              		.loc 1 78 0
  48 0004 054B     		ldr	r3, .L3
  49 0006 1B78     		ldrb	r3, [r3]	@ zero_extendqisi2
  50 0008 002B     		cmp	r3, #0
  51 000a 04D1     		bne	.L2
  79:.\Generated_Source\PSoC5/ADC_SAR.c ****     {
  80:.\Generated_Source\PSoC5/ADC_SAR.c ****         ADC_SAR_Init();
  52              		.loc 1 80 0
  53 000c FFF7FEFF 		bl	ADC_SAR_Init
  81:.\Generated_Source\PSoC5/ADC_SAR.c ****         ADC_SAR_initVar = 1u;
  54              		.loc 1 81 0
  55 0010 024B     		ldr	r3, .L3
  56 0012 0122     		movs	r2, #1
  57 0014 1A70     		strb	r2, [r3]
  58              	.L2:
  82:.\Generated_Source\PSoC5/ADC_SAR.c ****     }
  83:.\Generated_Source\PSoC5/ADC_SAR.c ****     ADC_SAR_Enable();
  59              		.loc 1 83 0
  60 0016 FFF7FEFF 		bl	ADC_SAR_Enable
  84:.\Generated_Source\PSoC5/ADC_SAR.c **** }
  61              		.loc 1 84 0
  62 001a 80BD     		pop	{r7, pc}
  63              	.L4:
  64              		.align	2
  65              	.L3:
  66 001c 00000000 		.word	ADC_SAR_initVar
  67              		.cfi_endproc
  68              	.LFE0:
  69              		.size	ADC_SAR_Start, .-ADC_SAR_Start
  70              		.section	.text.ADC_SAR_Init,"ax",%progbits
  71              		.align	2
  72              		.global	ADC_SAR_Init
  73              		.thumb
  74              		.thumb_func
  75              		.type	ADC_SAR_Init, %function
  76              	ADC_SAR_Init:
  77              	.LFB1:
  85:.\Generated_Source\PSoC5/ADC_SAR.c **** 
  86:.\Generated_Source\PSoC5/ADC_SAR.c **** 
  87:.\Generated_Source\PSoC5/ADC_SAR.c **** /*******************************************************************************
  88:.\Generated_Source\PSoC5/ADC_SAR.c **** * Function Name: ADC_SAR_Init
  89:.\Generated_Source\PSoC5/ADC_SAR.c **** ********************************************************************************
  90:.\Generated_Source\PSoC5/ADC_SAR.c **** *
  91:.\Generated_Source\PSoC5/ADC_SAR.c **** * Summary:
  92:.\Generated_Source\PSoC5/ADC_SAR.c **** *  Initialize component's parameters to the parameters set by user in the
  93:.\Generated_Source\PSoC5/ADC_SAR.c **** *  customizer of the component placed onto schematic. Usually called in
  94:.\Generated_Source\PSoC5/ADC_SAR.c **** *  ADC_SAR_Start().
ARM GAS  C:\Users\rdso323\AppData\Local\Temp\ccykTKjP.s 			page 4


  95:.\Generated_Source\PSoC5/ADC_SAR.c **** *
  96:.\Generated_Source\PSoC5/ADC_SAR.c **** * Parameters:
  97:.\Generated_Source\PSoC5/ADC_SAR.c **** *  None.
  98:.\Generated_Source\PSoC5/ADC_SAR.c **** *
  99:.\Generated_Source\PSoC5/ADC_SAR.c **** * Return:
 100:.\Generated_Source\PSoC5/ADC_SAR.c **** *  None.
 101:.\Generated_Source\PSoC5/ADC_SAR.c **** *
 102:.\Generated_Source\PSoC5/ADC_SAR.c **** * Global variables:
 103:.\Generated_Source\PSoC5/ADC_SAR.c **** *  The ADC_SAR_offset variable is initialized to 0.
 104:.\Generated_Source\PSoC5/ADC_SAR.c **** *
 105:.\Generated_Source\PSoC5/ADC_SAR.c **** *******************************************************************************/
 106:.\Generated_Source\PSoC5/ADC_SAR.c **** void ADC_SAR_Init(void)
 107:.\Generated_Source\PSoC5/ADC_SAR.c **** {
  78              		.loc 1 107 0
  79              		.cfi_startproc
  80              		@ args = 0, pretend = 0, frame = 0
  81              		@ frame_needed = 1, uses_anonymous_args = 0
  82 0000 80B5     		push	{r7, lr}
  83              		.cfi_def_cfa_offset 8
  84              		.cfi_offset 7, -8
  85              		.cfi_offset 14, -4
  86 0002 00AF     		add	r7, sp, #0
  87              		.cfi_def_cfa_register 7
 108:.\Generated_Source\PSoC5/ADC_SAR.c **** 
 109:.\Generated_Source\PSoC5/ADC_SAR.c ****     /* This is only valid if there is an internal clock */
 110:.\Generated_Source\PSoC5/ADC_SAR.c ****     #if(ADC_SAR_DEFAULT_INTERNAL_CLK)
 111:.\Generated_Source\PSoC5/ADC_SAR.c ****         ADC_SAR_theACLK_SetMode(CYCLK_DUTY);
 112:.\Generated_Source\PSoC5/ADC_SAR.c ****     #endif /* End ADC_SAR_DEFAULT_INTERNAL_CLK */
 113:.\Generated_Source\PSoC5/ADC_SAR.c **** 
 114:.\Generated_Source\PSoC5/ADC_SAR.c ****     #if(ADC_SAR_IRQ_REMOVE == 0u)
 115:.\Generated_Source\PSoC5/ADC_SAR.c ****         /* Start and set interrupt vector */
 116:.\Generated_Source\PSoC5/ADC_SAR.c ****         CyIntSetPriority(ADC_SAR_INTC_NUMBER, ADC_SAR_INTC_PRIOR_NUMBER);
 117:.\Generated_Source\PSoC5/ADC_SAR.c ****         (void)CyIntSetVector(ADC_SAR_INTC_NUMBER, &ADC_SAR_ISR);
 118:.\Generated_Source\PSoC5/ADC_SAR.c ****     #endif   /* End ADC_SAR_IRQ_REMOVE */
 119:.\Generated_Source\PSoC5/ADC_SAR.c **** 
 120:.\Generated_Source\PSoC5/ADC_SAR.c ****     /* Enable IRQ mode*/
 121:.\Generated_Source\PSoC5/ADC_SAR.c ****     ADC_SAR_SAR_CSR1_REG |= ADC_SAR_SAR_IRQ_MASK_EN | ADC_SAR_SAR_IRQ_MODE_EDGE;
  88              		.loc 1 121 0
  89 0004 074A     		ldr	r2, .L6
  90 0006 074B     		ldr	r3, .L6
  91 0008 1B78     		ldrb	r3, [r3]
  92 000a DBB2     		uxtb	r3, r3
  93 000c 43F00603 		orr	r3, r3, #6
  94 0010 DBB2     		uxtb	r3, r3
  95 0012 1370     		strb	r3, [r2]
 122:.\Generated_Source\PSoC5/ADC_SAR.c **** 
 123:.\Generated_Source\PSoC5/ADC_SAR.c ****     /*Set SAR ADC resolution ADC */
 124:.\Generated_Source\PSoC5/ADC_SAR.c ****     ADC_SAR_SetResolution(ADC_SAR_DEFAULT_RESOLUTION);
  96              		.loc 1 124 0
  97 0014 0C20     		movs	r0, #12
  98 0016 FFF7FEFF 		bl	ADC_SAR_SetResolution
 125:.\Generated_Source\PSoC5/ADC_SAR.c ****     ADC_SAR_offset = 0;
  99              		.loc 1 125 0
 100 001a 034B     		ldr	r3, .L6+4
 101 001c 0022     		movs	r2, #0
 102 001e 1A80     		strh	r2, [r3]	@ movhi
 126:.\Generated_Source\PSoC5/ADC_SAR.c **** }
ARM GAS  C:\Users\rdso323\AppData\Local\Temp\ccykTKjP.s 			page 5


 103              		.loc 1 126 0
 104 0020 80BD     		pop	{r7, pc}
 105              	.L7:
 106 0022 00BF     		.align	2
 107              	.L6:
 108 0024 09590040 		.word	1073764617
 109 0028 00000000 		.word	ADC_SAR_offset
 110              		.cfi_endproc
 111              	.LFE1:
 112              		.size	ADC_SAR_Init, .-ADC_SAR_Init
 113              		.section	.text.ADC_SAR_Enable,"ax",%progbits
 114              		.align	2
 115              		.global	ADC_SAR_Enable
 116              		.thumb
 117              		.thumb_func
 118              		.type	ADC_SAR_Enable, %function
 119              	ADC_SAR_Enable:
 120              	.LFB2:
 127:.\Generated_Source\PSoC5/ADC_SAR.c **** 
 128:.\Generated_Source\PSoC5/ADC_SAR.c **** 
 129:.\Generated_Source\PSoC5/ADC_SAR.c **** /*******************************************************************************
 130:.\Generated_Source\PSoC5/ADC_SAR.c **** * Function Name: ADC_SAR_Enable
 131:.\Generated_Source\PSoC5/ADC_SAR.c **** ********************************************************************************
 132:.\Generated_Source\PSoC5/ADC_SAR.c **** *
 133:.\Generated_Source\PSoC5/ADC_SAR.c **** * Summary:
 134:.\Generated_Source\PSoC5/ADC_SAR.c **** *  Enables the reference, clock and power for SAR ADC.
 135:.\Generated_Source\PSoC5/ADC_SAR.c **** *
 136:.\Generated_Source\PSoC5/ADC_SAR.c **** * Parameters:
 137:.\Generated_Source\PSoC5/ADC_SAR.c **** *  None.
 138:.\Generated_Source\PSoC5/ADC_SAR.c **** *
 139:.\Generated_Source\PSoC5/ADC_SAR.c **** * Return:
 140:.\Generated_Source\PSoC5/ADC_SAR.c **** *  None.
 141:.\Generated_Source\PSoC5/ADC_SAR.c **** *
 142:.\Generated_Source\PSoC5/ADC_SAR.c **** *******************************************************************************/
 143:.\Generated_Source\PSoC5/ADC_SAR.c **** void ADC_SAR_Enable(void)
 144:.\Generated_Source\PSoC5/ADC_SAR.c **** {
 121              		.loc 1 144 0
 122              		.cfi_startproc
 123              		@ args = 0, pretend = 0, frame = 8
 124              		@ frame_needed = 1, uses_anonymous_args = 0
 125 0000 80B5     		push	{r7, lr}
 126              		.cfi_def_cfa_offset 8
 127              		.cfi_offset 7, -8
 128              		.cfi_offset 14, -4
 129 0002 82B0     		sub	sp, sp, #8
 130              		.cfi_def_cfa_offset 16
 131 0004 00AF     		add	r7, sp, #0
 132              		.cfi_def_cfa_register 7
 145:.\Generated_Source\PSoC5/ADC_SAR.c ****     uint8 tmpReg;
 146:.\Generated_Source\PSoC5/ADC_SAR.c ****     uint8 enableInterrupts;
 147:.\Generated_Source\PSoC5/ADC_SAR.c ****     enableInterrupts = CyEnterCriticalSection();
 133              		.loc 1 147 0
 134 0006 FFF7FEFF 		bl	CyEnterCriticalSection
 135 000a 0346     		mov	r3, r0
 136 000c FB71     		strb	r3, [r7, #7]
 148:.\Generated_Source\PSoC5/ADC_SAR.c **** 
 149:.\Generated_Source\PSoC5/ADC_SAR.c ****     /* Enable the SAR ADC block in Active Power Mode */
ARM GAS  C:\Users\rdso323\AppData\Local\Temp\ccykTKjP.s 			page 6


 150:.\Generated_Source\PSoC5/ADC_SAR.c ****     ADC_SAR_PWRMGR_SAR_REG |= ADC_SAR_ACT_PWR_SAR_EN;
 137              		.loc 1 150 0
 138 000e 244A     		ldr	r2, .L9
 139 0010 234B     		ldr	r3, .L9
 140 0012 1B78     		ldrb	r3, [r3]
 141 0014 DBB2     		uxtb	r3, r3
 142 0016 43F00203 		orr	r3, r3, #2
 143 001a DBB2     		uxtb	r3, r3
 144 001c 1370     		strb	r3, [r2]
 151:.\Generated_Source\PSoC5/ADC_SAR.c **** 
 152:.\Generated_Source\PSoC5/ADC_SAR.c ****      /* Enable the SAR ADC in Standby Power Mode*/
 153:.\Generated_Source\PSoC5/ADC_SAR.c ****     ADC_SAR_STBY_PWRMGR_SAR_REG |= ADC_SAR_STBY_PWR_SAR_EN;
 145              		.loc 1 153 0
 146 001e 214A     		ldr	r2, .L9+4
 147 0020 204B     		ldr	r3, .L9+4
 148 0022 1B78     		ldrb	r3, [r3]
 149 0024 DBB2     		uxtb	r3, r3
 150 0026 43F00203 		orr	r3, r3, #2
 151 002a DBB2     		uxtb	r3, r3
 152 002c 1370     		strb	r3, [r2]
 154:.\Generated_Source\PSoC5/ADC_SAR.c **** 
 155:.\Generated_Source\PSoC5/ADC_SAR.c ****     /* This is only valid if there is an internal clock */
 156:.\Generated_Source\PSoC5/ADC_SAR.c ****     #if(ADC_SAR_DEFAULT_INTERNAL_CLK)
 157:.\Generated_Source\PSoC5/ADC_SAR.c ****         ADC_SAR_PWRMGR_CLK_REG |= ADC_SAR_ACT_PWR_CLK_EN;
 158:.\Generated_Source\PSoC5/ADC_SAR.c ****         ADC_SAR_STBY_PWRMGR_CLK_REG |= ADC_SAR_STBY_PWR_CLK_EN;
 159:.\Generated_Source\PSoC5/ADC_SAR.c ****     #endif /* End ADC_SAR_DEFAULT_INTERNAL_CLK */
 160:.\Generated_Source\PSoC5/ADC_SAR.c **** 
 161:.\Generated_Source\PSoC5/ADC_SAR.c ****     /* Enable VCM buffer and Enable Int Ref Amp */
 162:.\Generated_Source\PSoC5/ADC_SAR.c ****     tmpReg = ADC_SAR_SAR_CSR3_REG;
 153              		.loc 1 162 0
 154 002e 1E4B     		ldr	r3, .L9+8
 155 0030 1B78     		ldrb	r3, [r3]
 156 0032 BB71     		strb	r3, [r7, #6]
 163:.\Generated_Source\PSoC5/ADC_SAR.c ****     tmpReg |= ADC_SAR_SAR_EN_BUF_VCM_EN;
 157              		.loc 1 163 0
 158 0034 BB79     		ldrb	r3, [r7, #6]
 159 0036 43F00203 		orr	r3, r3, #2
 160 003a BB71     		strb	r3, [r7, #6]
 164:.\Generated_Source\PSoC5/ADC_SAR.c ****     /* PD_BUF_VREF is OFF in External reference or Vdda reference mode */
 165:.\Generated_Source\PSoC5/ADC_SAR.c ****     #if((ADC_SAR_DEFAULT_REFERENCE == ADC_SAR__EXT_REF) || \
 166:.\Generated_Source\PSoC5/ADC_SAR.c ****         (ADC_SAR_DEFAULT_RANGE == ADC_SAR__VNEG_VDDA_DIFF))
 167:.\Generated_Source\PSoC5/ADC_SAR.c ****         tmpReg &= (uint8)~ADC_SAR_SAR_EN_BUF_VREF_EN;
 168:.\Generated_Source\PSoC5/ADC_SAR.c ****     #else /* In INTREF or INTREF Bypassed this buffer is ON */
 169:.\Generated_Source\PSoC5/ADC_SAR.c ****         tmpReg |= ADC_SAR_SAR_EN_BUF_VREF_EN;
 161              		.loc 1 169 0
 162 003c BB79     		ldrb	r3, [r7, #6]
 163 003e 43F00103 		orr	r3, r3, #1
 164 0042 BB71     		strb	r3, [r7, #6]
 170:.\Generated_Source\PSoC5/ADC_SAR.c ****     #endif /* ADC_SAR_DEFAULT_REFERENCE == ADC_SAR__EXT_REF */
 171:.\Generated_Source\PSoC5/ADC_SAR.c ****     ADC_SAR_SAR_CSR3_REG = tmpReg;
 165              		.loc 1 171 0
 166 0044 184A     		ldr	r2, .L9+8
 167 0046 BB79     		ldrb	r3, [r7, #6]
 168 0048 1370     		strb	r3, [r2]
 172:.\Generated_Source\PSoC5/ADC_SAR.c **** 
 173:.\Generated_Source\PSoC5/ADC_SAR.c ****     /* Set reference for ADC */
 174:.\Generated_Source\PSoC5/ADC_SAR.c ****     #if(ADC_SAR_DEFAULT_RANGE == ADC_SAR__VNEG_VDDA_DIFF)
ARM GAS  C:\Users\rdso323\AppData\Local\Temp\ccykTKjP.s 			page 7


 175:.\Generated_Source\PSoC5/ADC_SAR.c ****         #if(ADC_SAR_DEFAULT_REFERENCE == ADC_SAR__EXT_REF)
 176:.\Generated_Source\PSoC5/ADC_SAR.c ****             ADC_SAR_SAR_CSR6_REG = ADC_SAR_INT_BYPASS_EXT_VREF; /* S2 */
 177:.\Generated_Source\PSoC5/ADC_SAR.c ****         #else /* Internal Vdda reference or obsolete bypass mode */
 178:.\Generated_Source\PSoC5/ADC_SAR.c ****             ADC_SAR_SAR_CSR6_REG = ADC_SAR_VDDA_VREF;           /* S7 */
 179:.\Generated_Source\PSoC5/ADC_SAR.c ****         #endif /* ADC_SAR_DEFAULT_REFERENCE == ADC_SAR__EXT_REF */
 180:.\Generated_Source\PSoC5/ADC_SAR.c ****     #else  /* Reference goes through internal buffer */
 181:.\Generated_Source\PSoC5/ADC_SAR.c ****         #if(ADC_SAR_DEFAULT_REFERENCE == ADC_SAR__INT_REF_NOT_BYPASSED)
 182:.\Generated_Source\PSoC5/ADC_SAR.c ****             ADC_SAR_SAR_CSR6_REG = ADC_SAR_INT_VREF;            /* S3 + S4 */
 169              		.loc 1 182 0
 170 004a 184B     		ldr	r3, .L9+12
 171 004c 1822     		movs	r2, #24
 172 004e 1A70     		strb	r2, [r3]
 183:.\Generated_Source\PSoC5/ADC_SAR.c ****         #else /* INTREF Bypassed of External */
 184:.\Generated_Source\PSoC5/ADC_SAR.c ****             ADC_SAR_SAR_CSR6_REG = ADC_SAR_INT_BYPASS_EXT_VREF; /* S2 */
 185:.\Generated_Source\PSoC5/ADC_SAR.c ****         #endif /* ADC_SAR_DEFAULT_REFERENCE == ADC_SAR__INT_REF_NOT_BYPASSED */
 186:.\Generated_Source\PSoC5/ADC_SAR.c ****     #endif /* VNEG_VDDA_DIFF */
 187:.\Generated_Source\PSoC5/ADC_SAR.c **** 
 188:.\Generated_Source\PSoC5/ADC_SAR.c ****     /* Low non-overlap delay for sampling clock signals (for 1MSPS) */
 189:.\Generated_Source\PSoC5/ADC_SAR.c ****     #if(ADC_SAR_HIGH_POWER_PULSE == 0u) /* MinPulseWidth <= 50 ns */
 190:.\Generated_Source\PSoC5/ADC_SAR.c ****         ADC_SAR_SAR_CSR5_REG &= (uint8)~ADC_SAR_SAR_DLY_INC;
 191:.\Generated_Source\PSoC5/ADC_SAR.c ****     #else /* Set High non-overlap delay for sampling clock signals (for <500KSPS)*/
 192:.\Generated_Source\PSoC5/ADC_SAR.c ****         ADC_SAR_SAR_CSR5_REG |= ADC_SAR_SAR_DLY_INC;
 173              		.loc 1 192 0
 174 0050 174A     		ldr	r2, .L9+16
 175 0052 174B     		ldr	r3, .L9+16
 176 0054 1B78     		ldrb	r3, [r3]
 177 0056 DBB2     		uxtb	r3, r3
 178 0058 43F04003 		orr	r3, r3, #64
 179 005c DBB2     		uxtb	r3, r3
 180 005e 1370     		strb	r3, [r2]
 193:.\Generated_Source\PSoC5/ADC_SAR.c ****     #endif /* ADC_SAR_HIGH_POWER_PULSE == 0u */
 194:.\Generated_Source\PSoC5/ADC_SAR.c **** 
 195:.\Generated_Source\PSoC5/ADC_SAR.c ****     /* Increase comparator latch enable delay by 20%, 
 196:.\Generated_Source\PSoC5/ADC_SAR.c ****     *  Increase comparator bias current by 30% without impacting delaysDelay 
 197:.\Generated_Source\PSoC5/ADC_SAR.c ****     *  Default for 1MSPS) 
 198:.\Generated_Source\PSoC5/ADC_SAR.c ****     */
 199:.\Generated_Source\PSoC5/ADC_SAR.c ****     #if(ADC_SAR_HIGH_POWER_PULSE == 0u)    /* MinPulseWidth <= 50 ns */
 200:.\Generated_Source\PSoC5/ADC_SAR.c ****         ADC_SAR_SAR_CSR5_REG |= ADC_SAR_SAR_SEL_CSEL_DFT_CHAR;
 201:.\Generated_Source\PSoC5/ADC_SAR.c ****     #else /* for <500ksps */
 202:.\Generated_Source\PSoC5/ADC_SAR.c ****         ADC_SAR_SAR_CSR5_REG &= (uint8)~ADC_SAR_SAR_SEL_CSEL_DFT_CHAR;
 181              		.loc 1 202 0
 182 0060 134A     		ldr	r2, .L9+16
 183 0062 134B     		ldr	r3, .L9+16
 184 0064 1B78     		ldrb	r3, [r3]
 185 0066 DBB2     		uxtb	r3, r3
 186 0068 23F00303 		bic	r3, r3, #3
 187 006c DBB2     		uxtb	r3, r3
 188 006e 1370     		strb	r3, [r2]
 203:.\Generated_Source\PSoC5/ADC_SAR.c ****     #endif /* ADC_SAR_HIGH_POWER_PULSE == 0u */
 204:.\Generated_Source\PSoC5/ADC_SAR.c **** 
 205:.\Generated_Source\PSoC5/ADC_SAR.c ****     /* Set default power and other configurations for control register 0 in multiple lines */
 206:.\Generated_Source\PSoC5/ADC_SAR.c ****     ADC_SAR_SAR_CSR0_REG = (uint8)((uint8)ADC_SAR_DEFAULT_POWER << ADC_SAR_SAR_POWER_SHIFT)
 189              		.loc 1 206 0
 190 0070 104B     		ldr	r3, .L9+20
 191 0072 C822     		movs	r2, #200
 192 0074 1A70     		strb	r2, [r3]
 207:.\Generated_Source\PSoC5/ADC_SAR.c ****     /* SAR_HIZ_CLEAR:   Should not be used for LP */
ARM GAS  C:\Users\rdso323\AppData\Local\Temp\ccykTKjP.s 			page 8


 208:.\Generated_Source\PSoC5/ADC_SAR.c ****     #if ((CY_PSOC5LP) || (ADC_SAR_DEFAULT_REFERENCE != ADC_SAR__EXT_REF))
 209:.\Generated_Source\PSoC5/ADC_SAR.c ****         | ADC_SAR_SAR_HIZ_CLEAR
 210:.\Generated_Source\PSoC5/ADC_SAR.c ****     #endif /* SAR_HIZ_CLEAR */
 211:.\Generated_Source\PSoC5/ADC_SAR.c ****     /*Set Convertion mode */
 212:.\Generated_Source\PSoC5/ADC_SAR.c ****     #if(ADC_SAR_DEFAULT_CONV_MODE != ADC_SAR__FREE_RUNNING)      /* If triggered mode */
 213:.\Generated_Source\PSoC5/ADC_SAR.c ****         | ADC_SAR_SAR_MX_SOF_UDB           /* source: UDB */
 214:.\Generated_Source\PSoC5/ADC_SAR.c ****         | ADC_SAR_SAR_SOF_MODE_EDGE        /* Set edge-sensitive sof source */
 215:.\Generated_Source\PSoC5/ADC_SAR.c ****     #endif /* ADC_SAR_DEFAULT_CONV_MODE */
 216:.\Generated_Source\PSoC5/ADC_SAR.c ****     ; /* end of multiple line initialization */
 217:.\Generated_Source\PSoC5/ADC_SAR.c **** 
 218:.\Generated_Source\PSoC5/ADC_SAR.c ****     ADC_SAR_SAR_TR0_REG = ADC_SAR_SAR_CAP_TRIM_2;
 193              		.loc 1 218 0
 194 0076 104B     		ldr	r3, .L9+24
 195 0078 0222     		movs	r2, #2
 196 007a 1A70     		strb	r2, [r3]
 219:.\Generated_Source\PSoC5/ADC_SAR.c **** 
 220:.\Generated_Source\PSoC5/ADC_SAR.c ****     /* Enable clock for SAR ADC*/
 221:.\Generated_Source\PSoC5/ADC_SAR.c ****     ADC_SAR_SAR_CLK_REG |= ADC_SAR_SAR_MX_CLK_EN;
 197              		.loc 1 221 0
 198 007c 0F4A     		ldr	r2, .L9+28
 199 007e 0F4B     		ldr	r3, .L9+28
 200 0080 1B78     		ldrb	r3, [r3]
 201 0082 DBB2     		uxtb	r3, r3
 202 0084 43F00803 		orr	r3, r3, #8
 203 0088 DBB2     		uxtb	r3, r3
 204 008a 1370     		strb	r3, [r2]
 222:.\Generated_Source\PSoC5/ADC_SAR.c **** 
 223:.\Generated_Source\PSoC5/ADC_SAR.c ****     CyDelayUs(10u); /* The block is ready to use 10 us after the enable signal is set high. */
 205              		.loc 1 223 0
 206 008c 0A20     		movs	r0, #10
 207 008e FFF7FEFF 		bl	CyDelayUs
 224:.\Generated_Source\PSoC5/ADC_SAR.c **** 
 225:.\Generated_Source\PSoC5/ADC_SAR.c ****     #if(ADC_SAR_IRQ_REMOVE == 0u)
 226:.\Generated_Source\PSoC5/ADC_SAR.c ****         /* Clear a pending interrupt */
 227:.\Generated_Source\PSoC5/ADC_SAR.c ****         CyIntClearPending(ADC_SAR_INTC_NUMBER);
 228:.\Generated_Source\PSoC5/ADC_SAR.c ****     #endif   /* End ADC_SAR_IRQ_REMOVE */
 229:.\Generated_Source\PSoC5/ADC_SAR.c **** 
 230:.\Generated_Source\PSoC5/ADC_SAR.c ****     CyExitCriticalSection(enableInterrupts);
 208              		.loc 1 230 0
 209 0092 FB79     		ldrb	r3, [r7, #7]	@ zero_extendqisi2
 210 0094 1846     		mov	r0, r3
 211 0096 FFF7FEFF 		bl	CyExitCriticalSection
 231:.\Generated_Source\PSoC5/ADC_SAR.c **** }
 212              		.loc 1 231 0
 213 009a 0837     		adds	r7, r7, #8
 214              		.cfi_def_cfa_offset 8
 215 009c BD46     		mov	sp, r7
 216              		.cfi_def_cfa_register 13
 217              		@ sp needed
 218 009e 80BD     		pop	{r7, pc}
 219              	.L10:
 220              		.align	2
 221              	.L9:
 222 00a0 AB430040 		.word	1073759147
 223 00a4 BB430040 		.word	1073759163
 224 00a8 0B590040 		.word	1073764619
 225 00ac 0E590040 		.word	1073764622
ARM GAS  C:\Users\rdso323\AppData\Local\Temp\ccykTKjP.s 			page 9


 226 00b0 0D590040 		.word	1073764621
 227 00b4 08590040 		.word	1073764616
 228 00b8 16460040 		.word	1073759766
 229 00bc 2F5B0040 		.word	1073765167
 230              		.cfi_endproc
 231              	.LFE2:
 232              		.size	ADC_SAR_Enable, .-ADC_SAR_Enable
 233              		.section	.text.ADC_SAR_Stop,"ax",%progbits
 234              		.align	2
 235              		.global	ADC_SAR_Stop
 236              		.thumb
 237              		.thumb_func
 238              		.type	ADC_SAR_Stop, %function
 239              	ADC_SAR_Stop:
 240              	.LFB3:
 232:.\Generated_Source\PSoC5/ADC_SAR.c **** 
 233:.\Generated_Source\PSoC5/ADC_SAR.c **** 
 234:.\Generated_Source\PSoC5/ADC_SAR.c **** /*******************************************************************************
 235:.\Generated_Source\PSoC5/ADC_SAR.c **** * Function Name: ADC_SAR_Stop
 236:.\Generated_Source\PSoC5/ADC_SAR.c **** ********************************************************************************
 237:.\Generated_Source\PSoC5/ADC_SAR.c **** *
 238:.\Generated_Source\PSoC5/ADC_SAR.c **** * Summary:
 239:.\Generated_Source\PSoC5/ADC_SAR.c **** *  Stops ADC conversions and puts the ADC into its lowest power mode.
 240:.\Generated_Source\PSoC5/ADC_SAR.c **** *
 241:.\Generated_Source\PSoC5/ADC_SAR.c **** * Parameters:
 242:.\Generated_Source\PSoC5/ADC_SAR.c **** *  None.
 243:.\Generated_Source\PSoC5/ADC_SAR.c **** *
 244:.\Generated_Source\PSoC5/ADC_SAR.c **** * Return:
 245:.\Generated_Source\PSoC5/ADC_SAR.c **** *  None.
 246:.\Generated_Source\PSoC5/ADC_SAR.c **** *
 247:.\Generated_Source\PSoC5/ADC_SAR.c **** *******************************************************************************/
 248:.\Generated_Source\PSoC5/ADC_SAR.c **** void ADC_SAR_Stop(void)
 249:.\Generated_Source\PSoC5/ADC_SAR.c **** {
 241              		.loc 1 249 0
 242              		.cfi_startproc
 243              		@ args = 0, pretend = 0, frame = 8
 244              		@ frame_needed = 1, uses_anonymous_args = 0
 245 0000 80B5     		push	{r7, lr}
 246              		.cfi_def_cfa_offset 8
 247              		.cfi_offset 7, -8
 248              		.cfi_offset 14, -4
 249 0002 82B0     		sub	sp, sp, #8
 250              		.cfi_def_cfa_offset 16
 251 0004 00AF     		add	r7, sp, #0
 252              		.cfi_def_cfa_register 7
 250:.\Generated_Source\PSoC5/ADC_SAR.c ****     uint8 enableInterrupts;
 251:.\Generated_Source\PSoC5/ADC_SAR.c ****     enableInterrupts = CyEnterCriticalSection();
 253              		.loc 1 251 0
 254 0006 FFF7FEFF 		bl	CyEnterCriticalSection
 255 000a 0346     		mov	r3, r0
 256 000c FB71     		strb	r3, [r7, #7]
 252:.\Generated_Source\PSoC5/ADC_SAR.c **** 
 253:.\Generated_Source\PSoC5/ADC_SAR.c ****     /* Stop all conversions */
 254:.\Generated_Source\PSoC5/ADC_SAR.c ****     ADC_SAR_SAR_CSR0_REG &= (uint8)~ADC_SAR_SAR_SOF_START_CONV;
 257              		.loc 1 254 0
 258 000e 0F4A     		ldr	r2, .L12
 259 0010 0E4B     		ldr	r3, .L12
ARM GAS  C:\Users\rdso323\AppData\Local\Temp\ccykTKjP.s 			page 10


 260 0012 1B78     		ldrb	r3, [r3]
 261 0014 DBB2     		uxtb	r3, r3
 262 0016 23F00103 		bic	r3, r3, #1
 263 001a DBB2     		uxtb	r3, r3
 264 001c 1370     		strb	r3, [r2]
 255:.\Generated_Source\PSoC5/ADC_SAR.c ****     /* Disable the SAR ADC block in Active Power Mode */
 256:.\Generated_Source\PSoC5/ADC_SAR.c ****     ADC_SAR_PWRMGR_SAR_REG &= (uint8)~ADC_SAR_ACT_PWR_SAR_EN;
 265              		.loc 1 256 0
 266 001e 0C4A     		ldr	r2, .L12+4
 267 0020 0B4B     		ldr	r3, .L12+4
 268 0022 1B78     		ldrb	r3, [r3]
 269 0024 DBB2     		uxtb	r3, r3
 270 0026 23F00203 		bic	r3, r3, #2
 271 002a DBB2     		uxtb	r3, r3
 272 002c 1370     		strb	r3, [r2]
 257:.\Generated_Source\PSoC5/ADC_SAR.c ****     /* Disable the SAR ADC in Standby Power Mode */
 258:.\Generated_Source\PSoC5/ADC_SAR.c ****     ADC_SAR_STBY_PWRMGR_SAR_REG &= (uint8)~ADC_SAR_STBY_PWR_SAR_EN;
 273              		.loc 1 258 0
 274 002e 094A     		ldr	r2, .L12+8
 275 0030 084B     		ldr	r3, .L12+8
 276 0032 1B78     		ldrb	r3, [r3]
 277 0034 DBB2     		uxtb	r3, r3
 278 0036 23F00203 		bic	r3, r3, #2
 279 003a DBB2     		uxtb	r3, r3
 280 003c 1370     		strb	r3, [r2]
 259:.\Generated_Source\PSoC5/ADC_SAR.c **** 
 260:.\Generated_Source\PSoC5/ADC_SAR.c ****     /* This is only valid if there is an internal clock */
 261:.\Generated_Source\PSoC5/ADC_SAR.c ****     #if(ADC_SAR_DEFAULT_INTERNAL_CLK)
 262:.\Generated_Source\PSoC5/ADC_SAR.c ****         ADC_SAR_PWRMGR_CLK_REG &= (uint8)~ADC_SAR_ACT_PWR_CLK_EN;
 263:.\Generated_Source\PSoC5/ADC_SAR.c ****         ADC_SAR_STBY_PWRMGR_CLK_REG &= (uint8)~ADC_SAR_STBY_PWR_CLK_EN;
 264:.\Generated_Source\PSoC5/ADC_SAR.c ****     #endif /* End ADC_SAR_DEFAULT_INTERNAL_CLK */
 265:.\Generated_Source\PSoC5/ADC_SAR.c **** 
 266:.\Generated_Source\PSoC5/ADC_SAR.c ****     CyExitCriticalSection(enableInterrupts);
 281              		.loc 1 266 0
 282 003e FB79     		ldrb	r3, [r7, #7]	@ zero_extendqisi2
 283 0040 1846     		mov	r0, r3
 284 0042 FFF7FEFF 		bl	CyExitCriticalSection
 267:.\Generated_Source\PSoC5/ADC_SAR.c **** 
 268:.\Generated_Source\PSoC5/ADC_SAR.c **** }
 285              		.loc 1 268 0
 286 0046 0837     		adds	r7, r7, #8
 287              		.cfi_def_cfa_offset 8
 288 0048 BD46     		mov	sp, r7
 289              		.cfi_def_cfa_register 13
 290              		@ sp needed
 291 004a 80BD     		pop	{r7, pc}
 292              	.L13:
 293              		.align	2
 294              	.L12:
 295 004c 08590040 		.word	1073764616
 296 0050 AB430040 		.word	1073759147
 297 0054 BB430040 		.word	1073759163
 298              		.cfi_endproc
 299              	.LFE3:
 300              		.size	ADC_SAR_Stop, .-ADC_SAR_Stop
 301              		.section	.text.ADC_SAR_SetPower,"ax",%progbits
 302              		.align	2
ARM GAS  C:\Users\rdso323\AppData\Local\Temp\ccykTKjP.s 			page 11


 303              		.global	ADC_SAR_SetPower
 304              		.thumb
 305              		.thumb_func
 306              		.type	ADC_SAR_SetPower, %function
 307              	ADC_SAR_SetPower:
 308              	.LFB4:
 269:.\Generated_Source\PSoC5/ADC_SAR.c **** 
 270:.\Generated_Source\PSoC5/ADC_SAR.c **** 
 271:.\Generated_Source\PSoC5/ADC_SAR.c **** /*******************************************************************************
 272:.\Generated_Source\PSoC5/ADC_SAR.c **** * Function Name: ADC_SAR_SetPower
 273:.\Generated_Source\PSoC5/ADC_SAR.c **** ********************************************************************************
 274:.\Generated_Source\PSoC5/ADC_SAR.c **** *
 275:.\Generated_Source\PSoC5/ADC_SAR.c **** * Summary:
 276:.\Generated_Source\PSoC5/ADC_SAR.c **** *  Sets the operational power of the ADC. You should use the higher power
 277:.\Generated_Source\PSoC5/ADC_SAR.c **** *  settings with faster clock speeds.
 278:.\Generated_Source\PSoC5/ADC_SAR.c **** *
 279:.\Generated_Source\PSoC5/ADC_SAR.c **** * Parameters:
 280:.\Generated_Source\PSoC5/ADC_SAR.c **** *  power:  Power setting for ADC
 281:.\Generated_Source\PSoC5/ADC_SAR.c **** *  0 ->    Normal
 282:.\Generated_Source\PSoC5/ADC_SAR.c **** *  1 ->    Medium power
 283:.\Generated_Source\PSoC5/ADC_SAR.c **** *  2 ->    1.25 power
 284:.\Generated_Source\PSoC5/ADC_SAR.c **** *  3 ->    Minimum power.
 285:.\Generated_Source\PSoC5/ADC_SAR.c **** *
 286:.\Generated_Source\PSoC5/ADC_SAR.c **** * Return:
 287:.\Generated_Source\PSoC5/ADC_SAR.c **** *  None.
 288:.\Generated_Source\PSoC5/ADC_SAR.c **** *
 289:.\Generated_Source\PSoC5/ADC_SAR.c **** *******************************************************************************/
 290:.\Generated_Source\PSoC5/ADC_SAR.c **** void ADC_SAR_SetPower(uint8 power)
 291:.\Generated_Source\PSoC5/ADC_SAR.c **** {
 309              		.loc 1 291 0
 310              		.cfi_startproc
 311              		@ args = 0, pretend = 0, frame = 16
 312              		@ frame_needed = 1, uses_anonymous_args = 0
 313              		@ link register save eliminated.
 314 0000 80B4     		push	{r7}
 315              		.cfi_def_cfa_offset 4
 316              		.cfi_offset 7, -4
 317 0002 85B0     		sub	sp, sp, #20
 318              		.cfi_def_cfa_offset 24
 319 0004 00AF     		add	r7, sp, #0
 320              		.cfi_def_cfa_register 7
 321 0006 0346     		mov	r3, r0
 322 0008 FB71     		strb	r3, [r7, #7]
 292:.\Generated_Source\PSoC5/ADC_SAR.c ****     uint8 tmpReg;
 293:.\Generated_Source\PSoC5/ADC_SAR.c **** 
 294:.\Generated_Source\PSoC5/ADC_SAR.c ****     /* mask off invalid power settings */
 295:.\Generated_Source\PSoC5/ADC_SAR.c ****     power &= ADC_SAR_SAR_API_POWER_MASK;
 323              		.loc 1 295 0
 324 000a FB79     		ldrb	r3, [r7, #7]
 325 000c 03F00303 		and	r3, r3, #3
 326 0010 FB71     		strb	r3, [r7, #7]
 296:.\Generated_Source\PSoC5/ADC_SAR.c **** 
 297:.\Generated_Source\PSoC5/ADC_SAR.c ****     /* Set Power parameter  */
 298:.\Generated_Source\PSoC5/ADC_SAR.c ****     tmpReg = ADC_SAR_SAR_CSR0_REG & (uint8)~ADC_SAR_SAR_POWER_MASK;
 327              		.loc 1 298 0
 328 0012 0A4B     		ldr	r3, .L15
 329 0014 1B78     		ldrb	r3, [r3]
ARM GAS  C:\Users\rdso323\AppData\Local\Temp\ccykTKjP.s 			page 12


 330 0016 DBB2     		uxtb	r3, r3
 331 0018 03F03F03 		and	r3, r3, #63
 332 001c FB73     		strb	r3, [r7, #15]
 299:.\Generated_Source\PSoC5/ADC_SAR.c ****     tmpReg |= (uint8)(power << ADC_SAR_SAR_POWER_SHIFT);
 333              		.loc 1 299 0
 334 001e FB79     		ldrb	r3, [r7, #7]
 335 0020 9B01     		lsls	r3, r3, #6
 336 0022 DAB2     		uxtb	r2, r3
 337 0024 FB7B     		ldrb	r3, [r7, #15]
 338 0026 1343     		orrs	r3, r3, r2
 339 0028 FB73     		strb	r3, [r7, #15]
 300:.\Generated_Source\PSoC5/ADC_SAR.c ****     ADC_SAR_SAR_CSR0_REG = tmpReg;
 340              		.loc 1 300 0
 341 002a 044A     		ldr	r2, .L15
 342 002c FB7B     		ldrb	r3, [r7, #15]
 343 002e 1370     		strb	r3, [r2]
 301:.\Generated_Source\PSoC5/ADC_SAR.c **** }
 344              		.loc 1 301 0
 345 0030 1437     		adds	r7, r7, #20
 346              		.cfi_def_cfa_offset 4
 347 0032 BD46     		mov	sp, r7
 348              		.cfi_def_cfa_register 13
 349              		@ sp needed
 350 0034 5DF8047B 		ldr	r7, [sp], #4
 351              		.cfi_restore 7
 352              		.cfi_def_cfa_offset 0
 353 0038 7047     		bx	lr
 354              	.L16:
 355 003a 00BF     		.align	2
 356              	.L15:
 357 003c 08590040 		.word	1073764616
 358              		.cfi_endproc
 359              	.LFE4:
 360              		.size	ADC_SAR_SetPower, .-ADC_SAR_SetPower
 361              		.section	.text.ADC_SAR_SetResolution,"ax",%progbits
 362              		.align	2
 363              		.global	ADC_SAR_SetResolution
 364              		.thumb
 365              		.thumb_func
 366              		.type	ADC_SAR_SetResolution, %function
 367              	ADC_SAR_SetResolution:
 368              	.LFB5:
 302:.\Generated_Source\PSoC5/ADC_SAR.c **** 
 303:.\Generated_Source\PSoC5/ADC_SAR.c **** 
 304:.\Generated_Source\PSoC5/ADC_SAR.c **** /*******************************************************************************
 305:.\Generated_Source\PSoC5/ADC_SAR.c **** * Function Name: ADC_SAR_SetResolution
 306:.\Generated_Source\PSoC5/ADC_SAR.c **** ********************************************************************************
 307:.\Generated_Source\PSoC5/ADC_SAR.c **** *
 308:.\Generated_Source\PSoC5/ADC_SAR.c **** * Summary:
 309:.\Generated_Source\PSoC5/ADC_SAR.c **** *  Sets the Relution of the SAR.
 310:.\Generated_Source\PSoC5/ADC_SAR.c **** *
 311:.\Generated_Source\PSoC5/ADC_SAR.c **** * Parameters:
 312:.\Generated_Source\PSoC5/ADC_SAR.c **** *  resolution:
 313:.\Generated_Source\PSoC5/ADC_SAR.c **** *  12 ->    RES12
 314:.\Generated_Source\PSoC5/ADC_SAR.c **** *  10 ->    RES10
 315:.\Generated_Source\PSoC5/ADC_SAR.c **** *  8  ->    RES8
 316:.\Generated_Source\PSoC5/ADC_SAR.c **** *
ARM GAS  C:\Users\rdso323\AppData\Local\Temp\ccykTKjP.s 			page 13


 317:.\Generated_Source\PSoC5/ADC_SAR.c **** * Return:
 318:.\Generated_Source\PSoC5/ADC_SAR.c **** *  None.
 319:.\Generated_Source\PSoC5/ADC_SAR.c **** *
 320:.\Generated_Source\PSoC5/ADC_SAR.c **** * Side Effects:
 321:.\Generated_Source\PSoC5/ADC_SAR.c **** *  The ADC resolution cannot be changed during a conversion cycle. The
 322:.\Generated_Source\PSoC5/ADC_SAR.c **** *  recommended best practice is to stop conversions with
 323:.\Generated_Source\PSoC5/ADC_SAR.c **** *  ADC_StopConvert(), change the resolution, then restart the
 324:.\Generated_Source\PSoC5/ADC_SAR.c **** *  conversions with ADC_StartConvert().
 325:.\Generated_Source\PSoC5/ADC_SAR.c **** *  If you decide not to stop conversions before calling this API, you
 326:.\Generated_Source\PSoC5/ADC_SAR.c **** *  should use ADC_IsEndConversion() to wait until conversion is complete
 327:.\Generated_Source\PSoC5/ADC_SAR.c **** *  before changing the resolution.
 328:.\Generated_Source\PSoC5/ADC_SAR.c **** *  If you call ADC_SetResolution() during a conversion, the resolution will
 329:.\Generated_Source\PSoC5/ADC_SAR.c **** *  not be changed until the current conversion is complete. Data will not be
 330:.\Generated_Source\PSoC5/ADC_SAR.c **** *  available in the new resolution for another 6 + "New Resolution(in bits)"
 331:.\Generated_Source\PSoC5/ADC_SAR.c **** *  clock cycles.
 332:.\Generated_Source\PSoC5/ADC_SAR.c **** *  You may need add a delay of this number of clock cycles after
 333:.\Generated_Source\PSoC5/ADC_SAR.c **** *  ADC_SetResolution() is called before data is valid again.
 334:.\Generated_Source\PSoC5/ADC_SAR.c **** *  Affects ADC_CountsTo_Volts(), ADC_CountsTo_mVolts(), and
 335:.\Generated_Source\PSoC5/ADC_SAR.c **** *  ADC_CountsTo_uVolts() by calculating the correct conversion between ADC
 336:.\Generated_Source\PSoC5/ADC_SAR.c **** *  counts and the applied input voltage. Calculation depends on resolution,
 337:.\Generated_Source\PSoC5/ADC_SAR.c **** *  input range, and voltage reference.
 338:.\Generated_Source\PSoC5/ADC_SAR.c **** *
 339:.\Generated_Source\PSoC5/ADC_SAR.c **** *******************************************************************************/
 340:.\Generated_Source\PSoC5/ADC_SAR.c **** void ADC_SAR_SetResolution(uint8 resolution)
 341:.\Generated_Source\PSoC5/ADC_SAR.c **** {
 369              		.loc 1 341 0
 370              		.cfi_startproc
 371              		@ args = 0, pretend = 0, frame = 16
 372              		@ frame_needed = 1, uses_anonymous_args = 0
 373 0000 80B5     		push	{r7, lr}
 374              		.cfi_def_cfa_offset 8
 375              		.cfi_offset 7, -8
 376              		.cfi_offset 14, -4
 377 0002 84B0     		sub	sp, sp, #16
 378              		.cfi_def_cfa_offset 24
 379 0004 00AF     		add	r7, sp, #0
 380              		.cfi_def_cfa_register 7
 381 0006 0346     		mov	r3, r0
 382 0008 FB71     		strb	r3, [r7, #7]
 342:.\Generated_Source\PSoC5/ADC_SAR.c ****     uint8 tmpReg;
 343:.\Generated_Source\PSoC5/ADC_SAR.c **** 
 344:.\Generated_Source\PSoC5/ADC_SAR.c ****     /* Set SAR ADC resolution and sample width: 18 conversion cycles at 12bits + 1 gap */
 345:.\Generated_Source\PSoC5/ADC_SAR.c ****     switch (resolution)
 383              		.loc 1 345 0
 384 000a FB79     		ldrb	r3, [r7, #7]	@ zero_extendqisi2
 385 000c 0A2B     		cmp	r3, #10
 386 000e 07D0     		beq	.L19
 387 0010 0C2B     		cmp	r3, #12
 388 0012 02D0     		beq	.L20
 389 0014 082B     		cmp	r3, #8
 390 0016 06D0     		beq	.L21
 391 0018 08E0     		b	.L23
 392              	.L20:
 346:.\Generated_Source\PSoC5/ADC_SAR.c ****     {
 347:.\Generated_Source\PSoC5/ADC_SAR.c ****         case (uint8)ADC_SAR__BITS_12:
 348:.\Generated_Source\PSoC5/ADC_SAR.c ****             tmpReg = ADC_SAR_SAR_RESOLUTION_12BIT | ADC_SAR_SAR_SAMPLE_WIDTH;
 393              		.loc 1 348 0
ARM GAS  C:\Users\rdso323\AppData\Local\Temp\ccykTKjP.s 			page 14


 394 001a C223     		movs	r3, #194
 395 001c FB73     		strb	r3, [r7, #15]
 349:.\Generated_Source\PSoC5/ADC_SAR.c ****             break;
 396              		.loc 1 349 0
 397 001e 0BE0     		b	.L22
 398              	.L19:
 350:.\Generated_Source\PSoC5/ADC_SAR.c ****         case (uint8)ADC_SAR__BITS_10:
 351:.\Generated_Source\PSoC5/ADC_SAR.c ****             tmpReg = ADC_SAR_SAR_RESOLUTION_10BIT | ADC_SAR_SAR_SAMPLE_WIDTH;
 399              		.loc 1 351 0
 400 0020 8223     		movs	r3, #130
 401 0022 FB73     		strb	r3, [r7, #15]
 352:.\Generated_Source\PSoC5/ADC_SAR.c ****             break;
 402              		.loc 1 352 0
 403 0024 08E0     		b	.L22
 404              	.L21:
 353:.\Generated_Source\PSoC5/ADC_SAR.c ****         case (uint8)ADC_SAR__BITS_8:
 354:.\Generated_Source\PSoC5/ADC_SAR.c ****             tmpReg = ADC_SAR_SAR_RESOLUTION_8BIT | ADC_SAR_SAR_SAMPLE_WIDTH;
 405              		.loc 1 354 0
 406 0026 4223     		movs	r3, #66
 407 0028 FB73     		strb	r3, [r7, #15]
 355:.\Generated_Source\PSoC5/ADC_SAR.c ****             break;
 408              		.loc 1 355 0
 409 002a 05E0     		b	.L22
 410              	.L23:
 356:.\Generated_Source\PSoC5/ADC_SAR.c ****         default:
 357:.\Generated_Source\PSoC5/ADC_SAR.c ****             tmpReg = ADC_SAR_SAR_RESOLUTION_12BIT | ADC_SAR_SAR_SAMPLE_WIDTH;
 411              		.loc 1 357 0
 412 002c C223     		movs	r3, #194
 413 002e FB73     		strb	r3, [r7, #15]
 358:.\Generated_Source\PSoC5/ADC_SAR.c ****             /* Halt CPU in debug mode if resolution is out of valid range */
 359:.\Generated_Source\PSoC5/ADC_SAR.c ****             CYASSERT(0u != 0u);
 414              		.loc 1 359 0
 415 0030 0020     		movs	r0, #0
 416 0032 FFF7FEFF 		bl	CyHalt
 360:.\Generated_Source\PSoC5/ADC_SAR.c ****             break;
 417              		.loc 1 360 0
 418 0036 00BF     		nop
 419              	.L22:
 361:.\Generated_Source\PSoC5/ADC_SAR.c ****     }
 362:.\Generated_Source\PSoC5/ADC_SAR.c ****     ADC_SAR_SAR_CSR2_REG = tmpReg;
 420              		.loc 1 362 0
 421 0038 044A     		ldr	r2, .L24
 422 003a FB7B     		ldrb	r3, [r7, #15]
 423 003c 1370     		strb	r3, [r2]
 363:.\Generated_Source\PSoC5/ADC_SAR.c **** 
 364:.\Generated_Source\PSoC5/ADC_SAR.c ****      /* Calculate gain for convert counts to volts */
 365:.\Generated_Source\PSoC5/ADC_SAR.c ****     ADC_SAR_CalcGain(resolution);
 424              		.loc 1 365 0
 425 003e FB79     		ldrb	r3, [r7, #7]	@ zero_extendqisi2
 426 0040 1846     		mov	r0, r3
 427 0042 FFF7FEFF 		bl	ADC_SAR_CalcGain
 366:.\Generated_Source\PSoC5/ADC_SAR.c **** }
 428              		.loc 1 366 0
 429 0046 1037     		adds	r7, r7, #16
 430              		.cfi_def_cfa_offset 8
 431 0048 BD46     		mov	sp, r7
 432              		.cfi_def_cfa_register 13
ARM GAS  C:\Users\rdso323\AppData\Local\Temp\ccykTKjP.s 			page 15


 433              		@ sp needed
 434 004a 80BD     		pop	{r7, pc}
 435              	.L25:
 436              		.align	2
 437              	.L24:
 438 004c 0A590040 		.word	1073764618
 439              		.cfi_endproc
 440              	.LFE5:
 441              		.size	ADC_SAR_SetResolution, .-ADC_SAR_SetResolution
 442              		.section	.text.ADC_SAR_StartConvert,"ax",%progbits
 443              		.align	2
 444              		.global	ADC_SAR_StartConvert
 445              		.thumb
 446              		.thumb_func
 447              		.type	ADC_SAR_StartConvert, %function
 448              	ADC_SAR_StartConvert:
 449              	.LFB6:
 367:.\Generated_Source\PSoC5/ADC_SAR.c **** 
 368:.\Generated_Source\PSoC5/ADC_SAR.c **** 
 369:.\Generated_Source\PSoC5/ADC_SAR.c **** #if(ADC_SAR_DEFAULT_CONV_MODE != ADC_SAR__HARDWARE_TRIGGER)
 370:.\Generated_Source\PSoC5/ADC_SAR.c **** 
 371:.\Generated_Source\PSoC5/ADC_SAR.c **** 
 372:.\Generated_Source\PSoC5/ADC_SAR.c ****     /*******************************************************************************
 373:.\Generated_Source\PSoC5/ADC_SAR.c ****     * Function Name: ADC_SAR_StartConvert
 374:.\Generated_Source\PSoC5/ADC_SAR.c ****     ********************************************************************************
 375:.\Generated_Source\PSoC5/ADC_SAR.c ****     *
 376:.\Generated_Source\PSoC5/ADC_SAR.c ****     * Summary:
 377:.\Generated_Source\PSoC5/ADC_SAR.c ****     *  Forces the ADC to initiate a conversion. In free-running mode, the ADC runs
 378:.\Generated_Source\PSoC5/ADC_SAR.c ****     *  continuously. In software trigger mode, the function also acts as a software
 379:.\Generated_Source\PSoC5/ADC_SAR.c ****     *  version of the SOC and every conversion must be triggered by
 380:.\Generated_Source\PSoC5/ADC_SAR.c ****     *  ADC_SAR_StartConvert(). This function is not available when the
 381:.\Generated_Source\PSoC5/ADC_SAR.c ****     *  Hardware Trigger sample mode is selected.
 382:.\Generated_Source\PSoC5/ADC_SAR.c ****     *
 383:.\Generated_Source\PSoC5/ADC_SAR.c ****     * Parameters:
 384:.\Generated_Source\PSoC5/ADC_SAR.c ****     *  None.
 385:.\Generated_Source\PSoC5/ADC_SAR.c ****     *
 386:.\Generated_Source\PSoC5/ADC_SAR.c ****     * Return:
 387:.\Generated_Source\PSoC5/ADC_SAR.c ****     *  None.
 388:.\Generated_Source\PSoC5/ADC_SAR.c ****     *
 389:.\Generated_Source\PSoC5/ADC_SAR.c ****     * Theory:
 390:.\Generated_Source\PSoC5/ADC_SAR.c ****     *  Forces the ADC to initiate a conversion. In Free Running mode, the ADC will
 391:.\Generated_Source\PSoC5/ADC_SAR.c ****     *  run continuously. In a software trigger mode the function also acts as a
 392:.\Generated_Source\PSoC5/ADC_SAR.c ****     *  software version of the SOC. Here every conversion has to be triggered by
 393:.\Generated_Source\PSoC5/ADC_SAR.c ****     *  the routine. This writes into the SOC bit in SAR_CTRL reg.
 394:.\Generated_Source\PSoC5/ADC_SAR.c ****     *
 395:.\Generated_Source\PSoC5/ADC_SAR.c ****     * Side Effects:
 396:.\Generated_Source\PSoC5/ADC_SAR.c ****     *  In a software trigger mode the function switches source for SOF from the
 397:.\Generated_Source\PSoC5/ADC_SAR.c ****     *  external pin to the internal SOF generation. Application should not call
 398:.\Generated_Source\PSoC5/ADC_SAR.c ****     *  StartConvert if external source used for SOF.
 399:.\Generated_Source\PSoC5/ADC_SAR.c ****     *
 400:.\Generated_Source\PSoC5/ADC_SAR.c ****     *******************************************************************************/
 401:.\Generated_Source\PSoC5/ADC_SAR.c ****     void ADC_SAR_StartConvert(void)
 402:.\Generated_Source\PSoC5/ADC_SAR.c ****     {
 450              		.loc 1 402 0
 451              		.cfi_startproc
 452              		@ args = 0, pretend = 0, frame = 0
 453              		@ frame_needed = 1, uses_anonymous_args = 0
ARM GAS  C:\Users\rdso323\AppData\Local\Temp\ccykTKjP.s 			page 16


 454              		@ link register save eliminated.
 455 0000 80B4     		push	{r7}
 456              		.cfi_def_cfa_offset 4
 457              		.cfi_offset 7, -4
 458 0002 00AF     		add	r7, sp, #0
 459              		.cfi_def_cfa_register 7
 403:.\Generated_Source\PSoC5/ADC_SAR.c ****         #if(ADC_SAR_DEFAULT_CONV_MODE != ADC_SAR__FREE_RUNNING)  /* If software triggered mode */
 404:.\Generated_Source\PSoC5/ADC_SAR.c ****             ADC_SAR_SAR_CSR0_REG &= (uint8)~ADC_SAR_SAR_MX_SOF_UDB;   /* source: SOF bit */
 405:.\Generated_Source\PSoC5/ADC_SAR.c ****         #endif /* End ADC_SAR_DEFAULT_CONV_MODE */
 406:.\Generated_Source\PSoC5/ADC_SAR.c **** 
 407:.\Generated_Source\PSoC5/ADC_SAR.c ****         /* Start the conversion */
 408:.\Generated_Source\PSoC5/ADC_SAR.c ****         ADC_SAR_SAR_CSR0_REG |= ADC_SAR_SAR_SOF_START_CONV;
 460              		.loc 1 408 0
 461 0004 054A     		ldr	r2, .L27
 462 0006 054B     		ldr	r3, .L27
 463 0008 1B78     		ldrb	r3, [r3]
 464 000a DBB2     		uxtb	r3, r3
 465 000c 43F00103 		orr	r3, r3, #1
 466 0010 DBB2     		uxtb	r3, r3
 467 0012 1370     		strb	r3, [r2]
 409:.\Generated_Source\PSoC5/ADC_SAR.c ****     }
 468              		.loc 1 409 0
 469 0014 BD46     		mov	sp, r7
 470              		.cfi_def_cfa_register 13
 471              		@ sp needed
 472 0016 5DF8047B 		ldr	r7, [sp], #4
 473              		.cfi_restore 7
 474              		.cfi_def_cfa_offset 0
 475 001a 7047     		bx	lr
 476              	.L28:
 477              		.align	2
 478              	.L27:
 479 001c 08590040 		.word	1073764616
 480              		.cfi_endproc
 481              	.LFE6:
 482              		.size	ADC_SAR_StartConvert, .-ADC_SAR_StartConvert
 483              		.section	.text.ADC_SAR_StopConvert,"ax",%progbits
 484              		.align	2
 485              		.global	ADC_SAR_StopConvert
 486              		.thumb
 487              		.thumb_func
 488              		.type	ADC_SAR_StopConvert, %function
 489              	ADC_SAR_StopConvert:
 490              	.LFB7:
 410:.\Generated_Source\PSoC5/ADC_SAR.c **** 
 411:.\Generated_Source\PSoC5/ADC_SAR.c **** 
 412:.\Generated_Source\PSoC5/ADC_SAR.c ****     /*******************************************************************************
 413:.\Generated_Source\PSoC5/ADC_SAR.c ****     * Function Name: ADC_SAR_StopConvert
 414:.\Generated_Source\PSoC5/ADC_SAR.c ****     ********************************************************************************
 415:.\Generated_Source\PSoC5/ADC_SAR.c ****     *
 416:.\Generated_Source\PSoC5/ADC_SAR.c ****     * Summary:
 417:.\Generated_Source\PSoC5/ADC_SAR.c ****     *  Forces the ADC to stop conversions. If a conversion is currently executing,
 418:.\Generated_Source\PSoC5/ADC_SAR.c ****     *  that conversion will complete, but no further conversions will occur. This
 419:.\Generated_Source\PSoC5/ADC_SAR.c ****     *  function is not available when the Hardware Trigger sample mode is selected.
 420:.\Generated_Source\PSoC5/ADC_SAR.c ****     *
 421:.\Generated_Source\PSoC5/ADC_SAR.c ****     * Parameters:
 422:.\Generated_Source\PSoC5/ADC_SAR.c ****     *  None.
ARM GAS  C:\Users\rdso323\AppData\Local\Temp\ccykTKjP.s 			page 17


 423:.\Generated_Source\PSoC5/ADC_SAR.c ****     *
 424:.\Generated_Source\PSoC5/ADC_SAR.c ****     * Return:
 425:.\Generated_Source\PSoC5/ADC_SAR.c ****     *  None.
 426:.\Generated_Source\PSoC5/ADC_SAR.c ****     *
 427:.\Generated_Source\PSoC5/ADC_SAR.c ****     * Theory:
 428:.\Generated_Source\PSoC5/ADC_SAR.c ****     *  Stops ADC conversion in Free Running mode.
 429:.\Generated_Source\PSoC5/ADC_SAR.c ****     *
 430:.\Generated_Source\PSoC5/ADC_SAR.c ****     * Side Effects:
 431:.\Generated_Source\PSoC5/ADC_SAR.c ****     *  In Software Trigger sample mode, this function sets a software version of the
 432:.\Generated_Source\PSoC5/ADC_SAR.c ****     *  SOC to low level and switches the SOC source to hardware SOC input.
 433:.\Generated_Source\PSoC5/ADC_SAR.c ****     *
 434:.\Generated_Source\PSoC5/ADC_SAR.c ****     *******************************************************************************/
 435:.\Generated_Source\PSoC5/ADC_SAR.c ****     void ADC_SAR_StopConvert(void)
 436:.\Generated_Source\PSoC5/ADC_SAR.c ****     {
 491              		.loc 1 436 0
 492              		.cfi_startproc
 493              		@ args = 0, pretend = 0, frame = 0
 494              		@ frame_needed = 1, uses_anonymous_args = 0
 495              		@ link register save eliminated.
 496 0000 80B4     		push	{r7}
 497              		.cfi_def_cfa_offset 4
 498              		.cfi_offset 7, -4
 499 0002 00AF     		add	r7, sp, #0
 500              		.cfi_def_cfa_register 7
 437:.\Generated_Source\PSoC5/ADC_SAR.c ****         /* Stop all conversions */
 438:.\Generated_Source\PSoC5/ADC_SAR.c ****         ADC_SAR_SAR_CSR0_REG &= (uint8)~ADC_SAR_SAR_SOF_START_CONV;
 501              		.loc 1 438 0
 502 0004 054A     		ldr	r2, .L30
 503 0006 054B     		ldr	r3, .L30
 504 0008 1B78     		ldrb	r3, [r3]
 505 000a DBB2     		uxtb	r3, r3
 506 000c 23F00103 		bic	r3, r3, #1
 507 0010 DBB2     		uxtb	r3, r3
 508 0012 1370     		strb	r3, [r2]
 439:.\Generated_Source\PSoC5/ADC_SAR.c **** 
 440:.\Generated_Source\PSoC5/ADC_SAR.c ****         #if(ADC_SAR_DEFAULT_CONV_MODE != ADC_SAR__FREE_RUNNING)  /* If software triggered mode */
 441:.\Generated_Source\PSoC5/ADC_SAR.c ****             /* Return source to UDB for hardware SOF signal */
 442:.\Generated_Source\PSoC5/ADC_SAR.c ****             ADC_SAR_SAR_CSR0_REG |= ADC_SAR_SAR_MX_SOF_UDB;    /* source: UDB */
 443:.\Generated_Source\PSoC5/ADC_SAR.c ****         #endif /* End ADC_SAR_DEFAULT_CONV_MODE */
 444:.\Generated_Source\PSoC5/ADC_SAR.c **** 
 445:.\Generated_Source\PSoC5/ADC_SAR.c ****     }
 509              		.loc 1 445 0
 510 0014 BD46     		mov	sp, r7
 511              		.cfi_def_cfa_register 13
 512              		@ sp needed
 513 0016 5DF8047B 		ldr	r7, [sp], #4
 514              		.cfi_restore 7
 515              		.cfi_def_cfa_offset 0
 516 001a 7047     		bx	lr
 517              	.L31:
 518              		.align	2
 519              	.L30:
 520 001c 08590040 		.word	1073764616
 521              		.cfi_endproc
 522              	.LFE7:
 523              		.size	ADC_SAR_StopConvert, .-ADC_SAR_StopConvert
 524              		.section	.text.ADC_SAR_IsEndConversion,"ax",%progbits
ARM GAS  C:\Users\rdso323\AppData\Local\Temp\ccykTKjP.s 			page 18


 525              		.align	2
 526              		.global	ADC_SAR_IsEndConversion
 527              		.thumb
 528              		.thumb_func
 529              		.type	ADC_SAR_IsEndConversion, %function
 530              	ADC_SAR_IsEndConversion:
 531              	.LFB8:
 446:.\Generated_Source\PSoC5/ADC_SAR.c **** 
 447:.\Generated_Source\PSoC5/ADC_SAR.c **** #endif /* End ADC_SAR_DEFAULT_CONV_MODE != ADC_SAR__HARDWARE_TRIGGER */
 448:.\Generated_Source\PSoC5/ADC_SAR.c **** 
 449:.\Generated_Source\PSoC5/ADC_SAR.c **** 
 450:.\Generated_Source\PSoC5/ADC_SAR.c **** /*******************************************************************************
 451:.\Generated_Source\PSoC5/ADC_SAR.c **** * Function Name: ADC_SAR_IsEndConversion
 452:.\Generated_Source\PSoC5/ADC_SAR.c **** ********************************************************************************
 453:.\Generated_Source\PSoC5/ADC_SAR.c **** *
 454:.\Generated_Source\PSoC5/ADC_SAR.c **** * Summary:
 455:.\Generated_Source\PSoC5/ADC_SAR.c **** *  Immediately returns the status of the conversion or does not return
 456:.\Generated_Source\PSoC5/ADC_SAR.c **** *  (blocking) until the conversion completes, depending on the retMode
 457:.\Generated_Source\PSoC5/ADC_SAR.c **** *  parameter.
 458:.\Generated_Source\PSoC5/ADC_SAR.c **** *
 459:.\Generated_Source\PSoC5/ADC_SAR.c **** * Parameters:
 460:.\Generated_Source\PSoC5/ADC_SAR.c **** *  retMode:  Check conversion return mode.
 461:.\Generated_Source\PSoC5/ADC_SAR.c **** *   ADC_SAR_RETURN_STATUS: Immediately returns the status. If the
 462:.\Generated_Source\PSoC5/ADC_SAR.c **** *     value returned is zero, the conversion is not complete, and this function
 463:.\Generated_Source\PSoC5/ADC_SAR.c **** *     should be retried until a nonzero result is returned.
 464:.\Generated_Source\PSoC5/ADC_SAR.c **** *   ADC_SAR_WAIT_FOR_RESULT: Does not return a result until the ADC
 465:.\Generated_Source\PSoC5/ADC_SAR.c **** *     conversion is complete.
 466:.\Generated_Source\PSoC5/ADC_SAR.c **** *
 467:.\Generated_Source\PSoC5/ADC_SAR.c **** * Return:
 468:.\Generated_Source\PSoC5/ADC_SAR.c **** *  (uint8)  0 =>  The ADC is still calculating the last result.
 469:.\Generated_Source\PSoC5/ADC_SAR.c **** *           1 =>  The last conversion is complete.
 470:.\Generated_Source\PSoC5/ADC_SAR.c **** *
 471:.\Generated_Source\PSoC5/ADC_SAR.c **** * Side Effects:
 472:.\Generated_Source\PSoC5/ADC_SAR.c **** *  This function reads the end of conversion status, which is cleared on read.
 473:.\Generated_Source\PSoC5/ADC_SAR.c **** *
 474:.\Generated_Source\PSoC5/ADC_SAR.c **** *******************************************************************************/
 475:.\Generated_Source\PSoC5/ADC_SAR.c **** uint8 ADC_SAR_IsEndConversion(uint8 retMode)
 476:.\Generated_Source\PSoC5/ADC_SAR.c **** {
 532              		.loc 1 476 0
 533              		.cfi_startproc
 534              		@ args = 0, pretend = 0, frame = 16
 535              		@ frame_needed = 1, uses_anonymous_args = 0
 536 0000 80B5     		push	{r7, lr}
 537              		.cfi_def_cfa_offset 8
 538              		.cfi_offset 7, -8
 539              		.cfi_offset 14, -4
 540 0002 84B0     		sub	sp, sp, #16
 541              		.cfi_def_cfa_offset 24
 542 0004 00AF     		add	r7, sp, #0
 543              		.cfi_def_cfa_register 7
 544 0006 0346     		mov	r3, r0
 545 0008 FB71     		strb	r3, [r7, #7]
 546              	.L34:
 477:.\Generated_Source\PSoC5/ADC_SAR.c ****     uint8 status;
 478:.\Generated_Source\PSoC5/ADC_SAR.c **** 
 479:.\Generated_Source\PSoC5/ADC_SAR.c ****     do
 480:.\Generated_Source\PSoC5/ADC_SAR.c ****     {
ARM GAS  C:\Users\rdso323\AppData\Local\Temp\ccykTKjP.s 			page 19


 481:.\Generated_Source\PSoC5/ADC_SAR.c ****         status = ADC_SAR_SAR_CSR1_REG & ADC_SAR_SAR_EOF_1;
 547              		.loc 1 481 0 discriminator 2
 548 000a 0C4B     		ldr	r3, .L37
 549 000c 1B78     		ldrb	r3, [r3]
 550 000e DBB2     		uxtb	r3, r3
 551 0010 03F00103 		and	r3, r3, #1
 552 0014 FB73     		strb	r3, [r7, #15]
 482:.\Generated_Source\PSoC5/ADC_SAR.c ****     } while ((status != ADC_SAR_SAR_EOF_1) && (retMode == ADC_SAR_WAIT_FOR_RESULT));
 553              		.loc 1 482 0 discriminator 2
 554 0016 FB7B     		ldrb	r3, [r7, #15]	@ zero_extendqisi2
 555 0018 012B     		cmp	r3, #1
 556 001a 02D0     		beq	.L33
 557              		.loc 1 482 0 is_stmt 0 discriminator 1
 558 001c FB79     		ldrb	r3, [r7, #7]	@ zero_extendqisi2
 559 001e 002B     		cmp	r3, #0
 560 0020 F3D0     		beq	.L34
 561              	.L33:
 483:.\Generated_Source\PSoC5/ADC_SAR.c ****     /* If convertion complete, wait until EOF bit released */
 484:.\Generated_Source\PSoC5/ADC_SAR.c ****     if(status == ADC_SAR_SAR_EOF_1)
 562              		.loc 1 484 0 is_stmt 1
 563 0022 FB7B     		ldrb	r3, [r7, #15]	@ zero_extendqisi2
 564 0024 012B     		cmp	r3, #1
 565 0026 04D1     		bne	.L35
 485:.\Generated_Source\PSoC5/ADC_SAR.c ****     {
 486:.\Generated_Source\PSoC5/ADC_SAR.c ****         /* wait one ADC clock to let the EOC status bit release */
 487:.\Generated_Source\PSoC5/ADC_SAR.c ****         CyDelayUs(1u);
 566              		.loc 1 487 0
 567 0028 0120     		movs	r0, #1
 568 002a FFF7FEFF 		bl	CyDelayUs
 488:.\Generated_Source\PSoC5/ADC_SAR.c ****         /* Do the unconditional read operation of the CSR1 register to make sure the EOC bit has be
 489:.\Generated_Source\PSoC5/ADC_SAR.c ****         CY_GET_REG8(ADC_SAR_SAR_CSR1_PTR);
 569              		.loc 1 489 0
 570 002e 034B     		ldr	r3, .L37
 571 0030 1B78     		ldrb	r3, [r3]
 572              	.L35:
 490:.\Generated_Source\PSoC5/ADC_SAR.c ****     }
 491:.\Generated_Source\PSoC5/ADC_SAR.c **** 
 492:.\Generated_Source\PSoC5/ADC_SAR.c ****     return(status);
 573              		.loc 1 492 0
 574 0032 FB7B     		ldrb	r3, [r7, #15]	@ zero_extendqisi2
 493:.\Generated_Source\PSoC5/ADC_SAR.c **** }
 575              		.loc 1 493 0
 576 0034 1846     		mov	r0, r3
 577 0036 1037     		adds	r7, r7, #16
 578              		.cfi_def_cfa_offset 8
 579 0038 BD46     		mov	sp, r7
 580              		.cfi_def_cfa_register 13
 581              		@ sp needed
 582 003a 80BD     		pop	{r7, pc}
 583              	.L38:
 584              		.align	2
 585              	.L37:
 586 003c 09590040 		.word	1073764617
 587              		.cfi_endproc
 588              	.LFE8:
 589              		.size	ADC_SAR_IsEndConversion, .-ADC_SAR_IsEndConversion
 590              		.section	.text.ADC_SAR_GetResult8,"ax",%progbits
ARM GAS  C:\Users\rdso323\AppData\Local\Temp\ccykTKjP.s 			page 20


 591              		.align	2
 592              		.global	ADC_SAR_GetResult8
 593              		.thumb
 594              		.thumb_func
 595              		.type	ADC_SAR_GetResult8, %function
 596              	ADC_SAR_GetResult8:
 597              	.LFB9:
 494:.\Generated_Source\PSoC5/ADC_SAR.c **** 
 495:.\Generated_Source\PSoC5/ADC_SAR.c **** 
 496:.\Generated_Source\PSoC5/ADC_SAR.c **** /*******************************************************************************
 497:.\Generated_Source\PSoC5/ADC_SAR.c **** * Function Name: ADC_SAR_GetResult8
 498:.\Generated_Source\PSoC5/ADC_SAR.c **** ********************************************************************************
 499:.\Generated_Source\PSoC5/ADC_SAR.c **** *
 500:.\Generated_Source\PSoC5/ADC_SAR.c **** * Summary:
 501:.\Generated_Source\PSoC5/ADC_SAR.c **** *  Returns the result of an 8-bit conversion. If the resolution is set greater
 502:.\Generated_Source\PSoC5/ADC_SAR.c **** *  than 8 bits, the function returns the LSB of the result.
 503:.\Generated_Source\PSoC5/ADC_SAR.c **** *  ADC_SAR_IsEndConversion() should be called to verify that the data
 504:.\Generated_Source\PSoC5/ADC_SAR.c **** *   sample is ready.
 505:.\Generated_Source\PSoC5/ADC_SAR.c **** *
 506:.\Generated_Source\PSoC5/ADC_SAR.c **** * Parameters:
 507:.\Generated_Source\PSoC5/ADC_SAR.c **** *  None.
 508:.\Generated_Source\PSoC5/ADC_SAR.c **** *
 509:.\Generated_Source\PSoC5/ADC_SAR.c **** * Return:
 510:.\Generated_Source\PSoC5/ADC_SAR.c **** *  The LSB of the last ADC conversion.
 511:.\Generated_Source\PSoC5/ADC_SAR.c **** *
 512:.\Generated_Source\PSoC5/ADC_SAR.c **** * Global Variables:
 513:.\Generated_Source\PSoC5/ADC_SAR.c **** *  ADC_SAR_shift - used to convert the ADC counts to the 2s
 514:.\Generated_Source\PSoC5/ADC_SAR.c **** *  compliment form.
 515:.\Generated_Source\PSoC5/ADC_SAR.c **** *
 516:.\Generated_Source\PSoC5/ADC_SAR.c **** * Side Effects:
 517:.\Generated_Source\PSoC5/ADC_SAR.c **** *  Converts the ADC counts to the 2s complement form.
 518:.\Generated_Source\PSoC5/ADC_SAR.c **** *
 519:.\Generated_Source\PSoC5/ADC_SAR.c **** *******************************************************************************/
 520:.\Generated_Source\PSoC5/ADC_SAR.c **** int8 ADC_SAR_GetResult8( void )
 521:.\Generated_Source\PSoC5/ADC_SAR.c **** {
 598              		.loc 1 521 0
 599              		.cfi_startproc
 600              		@ args = 0, pretend = 0, frame = 0
 601              		@ frame_needed = 1, uses_anonymous_args = 0
 602              		@ link register save eliminated.
 603 0000 80B4     		push	{r7}
 604              		.cfi_def_cfa_offset 4
 605              		.cfi_offset 7, -4
 606 0002 00AF     		add	r7, sp, #0
 607              		.cfi_def_cfa_register 7
 522:.\Generated_Source\PSoC5/ADC_SAR.c ****     return( (int8)ADC_SAR_SAR_WRK0_REG - (int8)ADC_SAR_shift);
 608              		.loc 1 522 0
 609 0004 074B     		ldr	r3, .L41
 610 0006 1B78     		ldrb	r3, [r3]
 611 0008 DAB2     		uxtb	r2, r3
 612 000a 074B     		ldr	r3, .L41+4
 613 000c 1B88     		ldrh	r3, [r3]	@ movhi
 614 000e 9BB2     		uxth	r3, r3
 615 0010 DBB2     		uxtb	r3, r3
 616 0012 D31A     		subs	r3, r2, r3
 617 0014 DBB2     		uxtb	r3, r3
 618 0016 DBB2     		uxtb	r3, r3
ARM GAS  C:\Users\rdso323\AppData\Local\Temp\ccykTKjP.s 			page 21


 619 0018 5BB2     		sxtb	r3, r3
 523:.\Generated_Source\PSoC5/ADC_SAR.c **** }
 620              		.loc 1 523 0
 621 001a 1846     		mov	r0, r3
 622 001c BD46     		mov	sp, r7
 623              		.cfi_def_cfa_register 13
 624              		@ sp needed
 625 001e 5DF8047B 		ldr	r7, [sp], #4
 626              		.cfi_restore 7
 627              		.cfi_def_cfa_offset 0
 628 0022 7047     		bx	lr
 629              	.L42:
 630              		.align	2
 631              	.L41:
 632 0024 A25B0040 		.word	1073765282
 633 0028 00000000 		.word	ADC_SAR_shift
 634              		.cfi_endproc
 635              	.LFE9:
 636              		.size	ADC_SAR_GetResult8, .-ADC_SAR_GetResult8
 637              		.section	.text.ADC_SAR_GetResult16,"ax",%progbits
 638              		.align	2
 639              		.global	ADC_SAR_GetResult16
 640              		.thumb
 641              		.thumb_func
 642              		.type	ADC_SAR_GetResult16, %function
 643              	ADC_SAR_GetResult16:
 644              	.LFB10:
 524:.\Generated_Source\PSoC5/ADC_SAR.c **** 
 525:.\Generated_Source\PSoC5/ADC_SAR.c **** 
 526:.\Generated_Source\PSoC5/ADC_SAR.c **** /*******************************************************************************
 527:.\Generated_Source\PSoC5/ADC_SAR.c **** * Function Name: ADC_SAR_GetResult16
 528:.\Generated_Source\PSoC5/ADC_SAR.c **** ********************************************************************************
 529:.\Generated_Source\PSoC5/ADC_SAR.c **** *
 530:.\Generated_Source\PSoC5/ADC_SAR.c **** * Summary:
 531:.\Generated_Source\PSoC5/ADC_SAR.c **** *  Returns a 16-bit result for a conversion with a result that has a resolution
 532:.\Generated_Source\PSoC5/ADC_SAR.c **** *  of 8 to 12 bits.
 533:.\Generated_Source\PSoC5/ADC_SAR.c **** *  ADC_SAR_IsEndConversion() should be called to verify that the data
 534:.\Generated_Source\PSoC5/ADC_SAR.c **** *   sample is ready
 535:.\Generated_Source\PSoC5/ADC_SAR.c **** *
 536:.\Generated_Source\PSoC5/ADC_SAR.c **** * Parameters:
 537:.\Generated_Source\PSoC5/ADC_SAR.c **** *  None.
 538:.\Generated_Source\PSoC5/ADC_SAR.c **** *
 539:.\Generated_Source\PSoC5/ADC_SAR.c **** * Return:
 540:.\Generated_Source\PSoC5/ADC_SAR.c **** *  The 16-bit result of the last ADC conversion
 541:.\Generated_Source\PSoC5/ADC_SAR.c **** *
 542:.\Generated_Source\PSoC5/ADC_SAR.c **** * Global Variables:
 543:.\Generated_Source\PSoC5/ADC_SAR.c **** *  ADC_SAR_shift - used to convert the ADC counts to the 2s
 544:.\Generated_Source\PSoC5/ADC_SAR.c **** *  compliment form.
 545:.\Generated_Source\PSoC5/ADC_SAR.c **** *
 546:.\Generated_Source\PSoC5/ADC_SAR.c **** * Side Effects:
 547:.\Generated_Source\PSoC5/ADC_SAR.c **** *  Converts the ADC counts to the 2s complement form.
 548:.\Generated_Source\PSoC5/ADC_SAR.c **** *
 549:.\Generated_Source\PSoC5/ADC_SAR.c **** *******************************************************************************/
 550:.\Generated_Source\PSoC5/ADC_SAR.c **** int16 ADC_SAR_GetResult16( void )
 551:.\Generated_Source\PSoC5/ADC_SAR.c **** {
 645              		.loc 1 551 0
 646              		.cfi_startproc
ARM GAS  C:\Users\rdso323\AppData\Local\Temp\ccykTKjP.s 			page 22


 647              		@ args = 0, pretend = 0, frame = 8
 648              		@ frame_needed = 1, uses_anonymous_args = 0
 649              		@ link register save eliminated.
 650 0000 80B4     		push	{r7}
 651              		.cfi_def_cfa_offset 4
 652              		.cfi_offset 7, -4
 653 0002 83B0     		sub	sp, sp, #12
 654              		.cfi_def_cfa_offset 16
 655 0004 00AF     		add	r7, sp, #0
 656              		.cfi_def_cfa_register 7
 552:.\Generated_Source\PSoC5/ADC_SAR.c ****     uint16 res;
 553:.\Generated_Source\PSoC5/ADC_SAR.c **** 
 554:.\Generated_Source\PSoC5/ADC_SAR.c ****     res = CY_GET_REG16(ADC_SAR_SAR_WRK_PTR);
 657              		.loc 1 554 0
 658 0006 094B     		ldr	r3, .L45
 659 0008 1B88     		ldrh	r3, [r3]	@ movhi
 660 000a FB80     		strh	r3, [r7, #6]	@ movhi
 555:.\Generated_Source\PSoC5/ADC_SAR.c **** 
 556:.\Generated_Source\PSoC5/ADC_SAR.c ****     return( (int16)res - ADC_SAR_shift );
 661              		.loc 1 556 0
 662 000c 084B     		ldr	r3, .L45+4
 663 000e 1B88     		ldrh	r3, [r3]	@ movhi
 664 0010 9BB2     		uxth	r3, r3
 665 0012 9BB2     		uxth	r3, r3
 666 0014 FA88     		ldrh	r2, [r7, #6]	@ movhi
 667 0016 D31A     		subs	r3, r2, r3
 668 0018 9BB2     		uxth	r3, r3
 669 001a 9BB2     		uxth	r3, r3
 670 001c 1BB2     		sxth	r3, r3
 557:.\Generated_Source\PSoC5/ADC_SAR.c **** }
 671              		.loc 1 557 0
 672 001e 1846     		mov	r0, r3
 673 0020 0C37     		adds	r7, r7, #12
 674              		.cfi_def_cfa_offset 4
 675 0022 BD46     		mov	sp, r7
 676              		.cfi_def_cfa_register 13
 677              		@ sp needed
 678 0024 5DF8047B 		ldr	r7, [sp], #4
 679              		.cfi_restore 7
 680              		.cfi_def_cfa_offset 0
 681 0028 7047     		bx	lr
 682              	.L46:
 683 002a 00BF     		.align	2
 684              	.L45:
 685 002c A25B0040 		.word	1073765282
 686 0030 00000000 		.word	ADC_SAR_shift
 687              		.cfi_endproc
 688              	.LFE10:
 689              		.size	ADC_SAR_GetResult16, .-ADC_SAR_GetResult16
 690              		.section	.text.ADC_SAR_SetOffset,"ax",%progbits
 691              		.align	2
 692              		.global	ADC_SAR_SetOffset
 693              		.thumb
 694              		.thumb_func
 695              		.type	ADC_SAR_SetOffset, %function
 696              	ADC_SAR_SetOffset:
 697              	.LFB11:
ARM GAS  C:\Users\rdso323\AppData\Local\Temp\ccykTKjP.s 			page 23


 558:.\Generated_Source\PSoC5/ADC_SAR.c **** 
 559:.\Generated_Source\PSoC5/ADC_SAR.c **** 
 560:.\Generated_Source\PSoC5/ADC_SAR.c **** /*******************************************************************************
 561:.\Generated_Source\PSoC5/ADC_SAR.c **** * Function Name: ADC_SAR_SetOffset
 562:.\Generated_Source\PSoC5/ADC_SAR.c **** ********************************************************************************
 563:.\Generated_Source\PSoC5/ADC_SAR.c **** *
 564:.\Generated_Source\PSoC5/ADC_SAR.c **** * Summary:
 565:.\Generated_Source\PSoC5/ADC_SAR.c **** *  Sets the ADC offset, which is used by ADC_SAR_CountsTo_Volts(),
 566:.\Generated_Source\PSoC5/ADC_SAR.c **** *  ADC_SAR_CountsTo_mVolts(), and ADC_SAR_CountsTo_uVolts()
 567:.\Generated_Source\PSoC5/ADC_SAR.c **** *  to subtract the offset from the given reading before calculating the voltage
 568:.\Generated_Source\PSoC5/ADC_SAR.c **** *  conversion.
 569:.\Generated_Source\PSoC5/ADC_SAR.c **** *
 570:.\Generated_Source\PSoC5/ADC_SAR.c **** * Parameters:
 571:.\Generated_Source\PSoC5/ADC_SAR.c **** *  int16: This value is measured when the inputs are shorted or connected to
 572:.\Generated_Source\PSoC5/ADC_SAR.c ****    the same input voltage.
 573:.\Generated_Source\PSoC5/ADC_SAR.c **** *
 574:.\Generated_Source\PSoC5/ADC_SAR.c **** * Return:
 575:.\Generated_Source\PSoC5/ADC_SAR.c **** *  None.
 576:.\Generated_Source\PSoC5/ADC_SAR.c **** *
 577:.\Generated_Source\PSoC5/ADC_SAR.c **** * Global Variables:
 578:.\Generated_Source\PSoC5/ADC_SAR.c **** *  The ADC_SAR_offset variable modified. This variable is used for
 579:.\Generated_Source\PSoC5/ADC_SAR.c **** *  offset calibration purpose.
 580:.\Generated_Source\PSoC5/ADC_SAR.c **** *  Affects the ADC_SAR_CountsTo_Volts,
 581:.\Generated_Source\PSoC5/ADC_SAR.c **** *  ADC_SAR_CountsTo_mVolts, ADC_SAR_CountsTo_uVolts functions
 582:.\Generated_Source\PSoC5/ADC_SAR.c **** *  by subtracting the given offset.
 583:.\Generated_Source\PSoC5/ADC_SAR.c **** *
 584:.\Generated_Source\PSoC5/ADC_SAR.c **** *******************************************************************************/
 585:.\Generated_Source\PSoC5/ADC_SAR.c **** void ADC_SAR_SetOffset(int16 offset)
 586:.\Generated_Source\PSoC5/ADC_SAR.c **** {
 698              		.loc 1 586 0
 699              		.cfi_startproc
 700              		@ args = 0, pretend = 0, frame = 8
 701              		@ frame_needed = 1, uses_anonymous_args = 0
 702              		@ link register save eliminated.
 703 0000 80B4     		push	{r7}
 704              		.cfi_def_cfa_offset 4
 705              		.cfi_offset 7, -4
 706 0002 83B0     		sub	sp, sp, #12
 707              		.cfi_def_cfa_offset 16
 708 0004 00AF     		add	r7, sp, #0
 709              		.cfi_def_cfa_register 7
 710 0006 0346     		mov	r3, r0
 711 0008 FB80     		strh	r3, [r7, #6]	@ movhi
 587:.\Generated_Source\PSoC5/ADC_SAR.c ****     ADC_SAR_offset = offset;
 712              		.loc 1 587 0
 713 000a 044A     		ldr	r2, .L48
 714 000c FB88     		ldrh	r3, [r7, #6]	@ movhi
 715 000e 1380     		strh	r3, [r2]	@ movhi
 588:.\Generated_Source\PSoC5/ADC_SAR.c **** }
 716              		.loc 1 588 0
 717 0010 0C37     		adds	r7, r7, #12
 718              		.cfi_def_cfa_offset 4
 719 0012 BD46     		mov	sp, r7
 720              		.cfi_def_cfa_register 13
 721              		@ sp needed
 722 0014 5DF8047B 		ldr	r7, [sp], #4
 723              		.cfi_restore 7
ARM GAS  C:\Users\rdso323\AppData\Local\Temp\ccykTKjP.s 			page 24


 724              		.cfi_def_cfa_offset 0
 725 0018 7047     		bx	lr
 726              	.L49:
 727 001a 00BF     		.align	2
 728              	.L48:
 729 001c 00000000 		.word	ADC_SAR_offset
 730              		.cfi_endproc
 731              	.LFE11:
 732              		.size	ADC_SAR_SetOffset, .-ADC_SAR_SetOffset
 733              		.section	.text.ADC_SAR_CalcGain,"ax",%progbits
 734              		.align	2
 735              		.thumb
 736              		.thumb_func
 737              		.type	ADC_SAR_CalcGain, %function
 738              	ADC_SAR_CalcGain:
 739              	.LFB12:
 589:.\Generated_Source\PSoC5/ADC_SAR.c **** 
 590:.\Generated_Source\PSoC5/ADC_SAR.c **** 
 591:.\Generated_Source\PSoC5/ADC_SAR.c **** /*******************************************************************************
 592:.\Generated_Source\PSoC5/ADC_SAR.c **** * Function Name: ADC_SAR_CalcGain
 593:.\Generated_Source\PSoC5/ADC_SAR.c **** ********************************************************************************
 594:.\Generated_Source\PSoC5/ADC_SAR.c **** *
 595:.\Generated_Source\PSoC5/ADC_SAR.c **** * Summary:
 596:.\Generated_Source\PSoC5/ADC_SAR.c **** *  This function calculates the ADC gain in counts per 10 volt.
 597:.\Generated_Source\PSoC5/ADC_SAR.c **** *
 598:.\Generated_Source\PSoC5/ADC_SAR.c **** * Parameters:
 599:.\Generated_Source\PSoC5/ADC_SAR.c **** *  uint8: resolution
 600:.\Generated_Source\PSoC5/ADC_SAR.c **** *
 601:.\Generated_Source\PSoC5/ADC_SAR.c **** * Return:
 602:.\Generated_Source\PSoC5/ADC_SAR.c **** *  None.
 603:.\Generated_Source\PSoC5/ADC_SAR.c **** *
 604:.\Generated_Source\PSoC5/ADC_SAR.c **** * Global Variables:
 605:.\Generated_Source\PSoC5/ADC_SAR.c **** *  ADC_SAR_shift variable initialized. This variable is used to
 606:.\Generated_Source\PSoC5/ADC_SAR.c **** *  convert the ADC counts to the 2s compliment form.
 607:.\Generated_Source\PSoC5/ADC_SAR.c **** *  ADC_SAR_countsPer10Volt variable initialized. This variable is used
 608:.\Generated_Source\PSoC5/ADC_SAR.c **** *  for gain calibration purpose.
 609:.\Generated_Source\PSoC5/ADC_SAR.c **** *
 610:.\Generated_Source\PSoC5/ADC_SAR.c **** *******************************************************************************/
 611:.\Generated_Source\PSoC5/ADC_SAR.c **** static void ADC_SAR_CalcGain( uint8 resolution )
 612:.\Generated_Source\PSoC5/ADC_SAR.c **** {
 740              		.loc 1 612 0
 741              		.cfi_startproc
 742              		@ args = 0, pretend = 0, frame = 16
 743              		@ frame_needed = 1, uses_anonymous_args = 0
 744 0000 80B5     		push	{r7, lr}
 745              		.cfi_def_cfa_offset 8
 746              		.cfi_offset 7, -8
 747              		.cfi_offset 14, -4
 748 0002 84B0     		sub	sp, sp, #16
 749              		.cfi_def_cfa_offset 24
 750 0004 00AF     		add	r7, sp, #0
 751              		.cfi_def_cfa_register 7
 752 0006 0346     		mov	r3, r0
 753 0008 FB71     		strb	r3, [r7, #7]
 613:.\Generated_Source\PSoC5/ADC_SAR.c ****     int32 counts;
 614:.\Generated_Source\PSoC5/ADC_SAR.c ****     #if(!((ADC_SAR_DEFAULT_RANGE == ADC_SAR__VSS_TO_VREF) || \
 615:.\Generated_Source\PSoC5/ADC_SAR.c ****          (ADC_SAR_DEFAULT_RANGE == ADC_SAR__VSSA_TO_VDDA) || \
ARM GAS  C:\Users\rdso323\AppData\Local\Temp\ccykTKjP.s 			page 25


 616:.\Generated_Source\PSoC5/ADC_SAR.c ****          (ADC_SAR_DEFAULT_RANGE == ADC_SAR__VSSA_TO_VDAC)) )
 617:.\Generated_Source\PSoC5/ADC_SAR.c ****         uint16 diff_zero;
 618:.\Generated_Source\PSoC5/ADC_SAR.c ****     #endif /* End ADC_SAR_DEFAULT_RANGE */
 619:.\Generated_Source\PSoC5/ADC_SAR.c **** 
 620:.\Generated_Source\PSoC5/ADC_SAR.c ****     switch (resolution)
 754              		.loc 1 620 0
 755 000a FB79     		ldrb	r3, [r7, #7]	@ zero_extendqisi2
 756 000c 0A2B     		cmp	r3, #10
 757 000e 08D0     		beq	.L52
 758 0010 0C2B     		cmp	r3, #12
 759 0012 02D0     		beq	.L53
 760 0014 082B     		cmp	r3, #8
 761 0016 08D0     		beq	.L54
 762 0018 0BE0     		b	.L56
 763              	.L53:
 621:.\Generated_Source\PSoC5/ADC_SAR.c ****     {
 622:.\Generated_Source\PSoC5/ADC_SAR.c ****         case (uint8)ADC_SAR__BITS_12:
 623:.\Generated_Source\PSoC5/ADC_SAR.c ****             counts = (int32)ADC_SAR_SAR_WRK_MAX_12BIT;
 764              		.loc 1 623 0
 765 001a 4FF48053 		mov	r3, #4096
 766 001e FB60     		str	r3, [r7, #12]
 624:.\Generated_Source\PSoC5/ADC_SAR.c ****             #if(!((ADC_SAR_DEFAULT_RANGE == ADC_SAR__VSS_TO_VREF) || \
 625:.\Generated_Source\PSoC5/ADC_SAR.c ****                  (ADC_SAR_DEFAULT_RANGE == ADC_SAR__VSSA_TO_VDDA) || \
 626:.\Generated_Source\PSoC5/ADC_SAR.c ****                  (ADC_SAR_DEFAULT_RANGE == ADC_SAR__VSSA_TO_VDAC)) )
 627:.\Generated_Source\PSoC5/ADC_SAR.c ****                 diff_zero = ADC_SAR_SAR_DIFF_SHIFT;
 628:.\Generated_Source\PSoC5/ADC_SAR.c ****             #endif /* End ADC_SAR_DEFAULT_RANGE */
 629:.\Generated_Source\PSoC5/ADC_SAR.c ****             break;
 767              		.loc 1 629 0
 768 0020 0DE0     		b	.L55
 769              	.L52:
 630:.\Generated_Source\PSoC5/ADC_SAR.c ****         case (uint8)ADC_SAR__BITS_10:
 631:.\Generated_Source\PSoC5/ADC_SAR.c ****             counts = (int32)ADC_SAR_SAR_WRK_MAX_10BIT;
 770              		.loc 1 631 0
 771 0022 4FF48063 		mov	r3, #1024
 772 0026 FB60     		str	r3, [r7, #12]
 632:.\Generated_Source\PSoC5/ADC_SAR.c ****             #if(!((ADC_SAR_DEFAULT_RANGE == ADC_SAR__VSS_TO_VREF) || \
 633:.\Generated_Source\PSoC5/ADC_SAR.c ****                  (ADC_SAR_DEFAULT_RANGE == ADC_SAR__VSSA_TO_VDDA) || \
 634:.\Generated_Source\PSoC5/ADC_SAR.c ****                  (ADC_SAR_DEFAULT_RANGE == ADC_SAR__VSSA_TO_VDAC)) )
 635:.\Generated_Source\PSoC5/ADC_SAR.c ****                 diff_zero = ADC_SAR_SAR_DIFF_SHIFT >> 2u;
 636:.\Generated_Source\PSoC5/ADC_SAR.c ****             #endif /* End ADC_SAR_DEFAULT_RANGE */
 637:.\Generated_Source\PSoC5/ADC_SAR.c ****             break;
 773              		.loc 1 637 0
 774 0028 09E0     		b	.L55
 775              	.L54:
 638:.\Generated_Source\PSoC5/ADC_SAR.c ****         case (uint8)ADC_SAR__BITS_8:
 639:.\Generated_Source\PSoC5/ADC_SAR.c ****             counts = (int32)ADC_SAR_SAR_WRK_MAX_8BIT;
 776              		.loc 1 639 0
 777 002a 4FF48073 		mov	r3, #256
 778 002e FB60     		str	r3, [r7, #12]
 640:.\Generated_Source\PSoC5/ADC_SAR.c ****             #if(!((ADC_SAR_DEFAULT_RANGE == ADC_SAR__VSS_TO_VREF) || \
 641:.\Generated_Source\PSoC5/ADC_SAR.c ****                  (ADC_SAR_DEFAULT_RANGE == ADC_SAR__VSSA_TO_VDDA) || \
 642:.\Generated_Source\PSoC5/ADC_SAR.c ****                  (ADC_SAR_DEFAULT_RANGE == ADC_SAR__VSSA_TO_VDAC)) )
 643:.\Generated_Source\PSoC5/ADC_SAR.c ****                 diff_zero = ADC_SAR_SAR_DIFF_SHIFT >> 4u;
 644:.\Generated_Source\PSoC5/ADC_SAR.c ****             #endif /* End ADC_SAR_DEFAULT_RANGE */
 645:.\Generated_Source\PSoC5/ADC_SAR.c ****             break;
 779              		.loc 1 645 0
 780 0030 05E0     		b	.L55
ARM GAS  C:\Users\rdso323\AppData\Local\Temp\ccykTKjP.s 			page 26


 781              	.L56:
 646:.\Generated_Source\PSoC5/ADC_SAR.c ****         default: /* Halt CPU in debug mode if resolution is out of valid range */
 647:.\Generated_Source\PSoC5/ADC_SAR.c ****             counts = 0;
 782              		.loc 1 647 0
 783 0032 0023     		movs	r3, #0
 784 0034 FB60     		str	r3, [r7, #12]
 648:.\Generated_Source\PSoC5/ADC_SAR.c ****             #if(!((ADC_SAR_DEFAULT_RANGE == ADC_SAR__VSS_TO_VREF) || \
 649:.\Generated_Source\PSoC5/ADC_SAR.c ****                  (ADC_SAR_DEFAULT_RANGE == ADC_SAR__VSSA_TO_VDDA) || \
 650:.\Generated_Source\PSoC5/ADC_SAR.c ****                  (ADC_SAR_DEFAULT_RANGE == ADC_SAR__VSSA_TO_VDAC)) )
 651:.\Generated_Source\PSoC5/ADC_SAR.c ****                 diff_zero = 0u;
 652:.\Generated_Source\PSoC5/ADC_SAR.c ****             #endif /* End ADC_SAR_DEFAULT_RANGE */
 653:.\Generated_Source\PSoC5/ADC_SAR.c ****             CYASSERT(0u != 0u);
 785              		.loc 1 653 0
 786 0036 0020     		movs	r0, #0
 787 0038 FFF7FEFF 		bl	CyHalt
 654:.\Generated_Source\PSoC5/ADC_SAR.c ****             break;
 788              		.loc 1 654 0
 789 003c 00BF     		nop
 790              	.L55:
 655:.\Generated_Source\PSoC5/ADC_SAR.c ****     }
 656:.\Generated_Source\PSoC5/ADC_SAR.c ****     ADC_SAR_countsPerVolt = 0; /* Clear obsolete variable */
 791              		.loc 1 656 0
 792 003e 0C4B     		ldr	r3, .L57
 793 0040 0022     		movs	r2, #0
 794 0042 1A80     		strh	r2, [r3]	@ movhi
 657:.\Generated_Source\PSoC5/ADC_SAR.c ****     /* Calculate gain in counts per 10 volts with rounding */
 658:.\Generated_Source\PSoC5/ADC_SAR.c ****     ADC_SAR_countsPer10Volt = (((counts * ADC_SAR_10MV_COUNTS) +
 795              		.loc 1 658 0
 796 0044 FB68     		ldr	r3, [r7, #12]
 797 0046 42F21072 		movw	r2, #10000
 798 004a 02FB03F3 		mul	r3, r2, r3
 799 004e 03F6C413 		addw	r3, r3, #2500
 659:.\Generated_Source\PSoC5/ADC_SAR.c ****                         ADC_SAR_DEFAULT_REF_VOLTAGE_MV) / (ADC_SAR_DEFAULT_REF_VOLTAGE_MV * 2));
 800              		.loc 1 659 0
 801 0052 084A     		ldr	r2, .L57+4
 802 0054 82FB0312 		smull	r1, r2, r2, r3
 803 0058 D212     		asrs	r2, r2, #11
 804 005a DB17     		asrs	r3, r3, #31
 805 005c D31A     		subs	r3, r2, r3
 658:.\Generated_Source\PSoC5/ADC_SAR.c ****                         ADC_SAR_DEFAULT_REF_VOLTAGE_MV) / (ADC_SAR_DEFAULT_REF_VOLTAGE_MV * 2));
 806              		.loc 1 658 0
 807 005e 064A     		ldr	r2, .L57+8
 808 0060 1360     		str	r3, [r2]
 660:.\Generated_Source\PSoC5/ADC_SAR.c **** 
 661:.\Generated_Source\PSoC5/ADC_SAR.c ****     #if( (ADC_SAR_DEFAULT_RANGE == ADC_SAR__VSS_TO_VREF) || \
 662:.\Generated_Source\PSoC5/ADC_SAR.c ****          (ADC_SAR_DEFAULT_RANGE == ADC_SAR__VSSA_TO_VDDA) || \
 663:.\Generated_Source\PSoC5/ADC_SAR.c ****          (ADC_SAR_DEFAULT_RANGE == ADC_SAR__VSSA_TO_VDAC) )
 664:.\Generated_Source\PSoC5/ADC_SAR.c ****         ADC_SAR_shift = 0;
 809              		.loc 1 664 0
 810 0062 064B     		ldr	r3, .L57+12
 811 0064 0022     		movs	r2, #0
 812 0066 1A80     		strh	r2, [r3]	@ movhi
 665:.\Generated_Source\PSoC5/ADC_SAR.c ****     #else
 666:.\Generated_Source\PSoC5/ADC_SAR.c ****         ADC_SAR_shift = diff_zero;
 667:.\Generated_Source\PSoC5/ADC_SAR.c ****     #endif /* End ADC_SAR_DEFAULT_RANGE */
 668:.\Generated_Source\PSoC5/ADC_SAR.c **** }
 813              		.loc 1 668 0
ARM GAS  C:\Users\rdso323\AppData\Local\Temp\ccykTKjP.s 			page 27


 814 0068 1037     		adds	r7, r7, #16
 815              		.cfi_def_cfa_offset 8
 816 006a BD46     		mov	sp, r7
 817              		.cfi_def_cfa_register 13
 818              		@ sp needed
 819 006c 80BD     		pop	{r7, pc}
 820              	.L58:
 821 006e 00BF     		.align	2
 822              	.L57:
 823 0070 00000000 		.word	ADC_SAR_countsPerVolt
 824 0074 AD8BDB68 		.word	1759218605
 825 0078 00000000 		.word	ADC_SAR_countsPer10Volt
 826 007c 00000000 		.word	ADC_SAR_shift
 827              		.cfi_endproc
 828              	.LFE12:
 829              		.size	ADC_SAR_CalcGain, .-ADC_SAR_CalcGain
 830              		.section	.text.ADC_SAR_SetGain,"ax",%progbits
 831              		.align	2
 832              		.global	ADC_SAR_SetGain
 833              		.thumb
 834              		.thumb_func
 835              		.type	ADC_SAR_SetGain, %function
 836              	ADC_SAR_SetGain:
 837              	.LFB13:
 669:.\Generated_Source\PSoC5/ADC_SAR.c **** 
 670:.\Generated_Source\PSoC5/ADC_SAR.c **** 
 671:.\Generated_Source\PSoC5/ADC_SAR.c **** /*******************************************************************************
 672:.\Generated_Source\PSoC5/ADC_SAR.c **** * Function Name: ADC_SAR_SetGain
 673:.\Generated_Source\PSoC5/ADC_SAR.c **** ********************************************************************************
 674:.\Generated_Source\PSoC5/ADC_SAR.c **** *
 675:.\Generated_Source\PSoC5/ADC_SAR.c **** * Summary:
 676:.\Generated_Source\PSoC5/ADC_SAR.c **** *  Sets the ADC gain in counts per volt for the voltage conversion functions
 677:.\Generated_Source\PSoC5/ADC_SAR.c **** *  that follow. This value is set by default by the reference and input range
 678:.\Generated_Source\PSoC5/ADC_SAR.c **** *  settings. It should only be used to further calibrate the ADC with a known
 679:.\Generated_Source\PSoC5/ADC_SAR.c **** *  input or if the ADC is using an external reference.
 680:.\Generated_Source\PSoC5/ADC_SAR.c **** *
 681:.\Generated_Source\PSoC5/ADC_SAR.c **** * Parameters:
 682:.\Generated_Source\PSoC5/ADC_SAR.c **** *  int16 adcGain counts per volt
 683:.\Generated_Source\PSoC5/ADC_SAR.c **** *
 684:.\Generated_Source\PSoC5/ADC_SAR.c **** * Return:
 685:.\Generated_Source\PSoC5/ADC_SAR.c **** *  None.
 686:.\Generated_Source\PSoC5/ADC_SAR.c **** *
 687:.\Generated_Source\PSoC5/ADC_SAR.c **** * Global Variables:
 688:.\Generated_Source\PSoC5/ADC_SAR.c **** *  ADC_SAR_countsPer10Volt variable modified. This variable is used
 689:.\Generated_Source\PSoC5/ADC_SAR.c **** *  for gain calibration purpose.
 690:.\Generated_Source\PSoC5/ADC_SAR.c **** *
 691:.\Generated_Source\PSoC5/ADC_SAR.c **** *******************************************************************************/
 692:.\Generated_Source\PSoC5/ADC_SAR.c **** void ADC_SAR_SetGain(int16 adcGain)
 693:.\Generated_Source\PSoC5/ADC_SAR.c **** {
 838              		.loc 1 693 0
 839              		.cfi_startproc
 840              		@ args = 0, pretend = 0, frame = 8
 841              		@ frame_needed = 1, uses_anonymous_args = 0
 842              		@ link register save eliminated.
 843 0000 80B4     		push	{r7}
 844              		.cfi_def_cfa_offset 4
 845              		.cfi_offset 7, -4
ARM GAS  C:\Users\rdso323\AppData\Local\Temp\ccykTKjP.s 			page 28


 846 0002 83B0     		sub	sp, sp, #12
 847              		.cfi_def_cfa_offset 16
 848 0004 00AF     		add	r7, sp, #0
 849              		.cfi_def_cfa_register 7
 850 0006 0346     		mov	r3, r0
 851 0008 FB80     		strh	r3, [r7, #6]	@ movhi
 694:.\Generated_Source\PSoC5/ADC_SAR.c ****     ADC_SAR_countsPer10Volt = (int32)adcGain * 10;
 852              		.loc 1 694 0
 853 000a B7F90620 		ldrsh	r2, [r7, #6]
 854 000e 1346     		mov	r3, r2
 855 0010 9B00     		lsls	r3, r3, #2
 856 0012 1344     		add	r3, r3, r2
 857 0014 5B00     		lsls	r3, r3, #1
 858 0016 1A46     		mov	r2, r3
 859 0018 034B     		ldr	r3, .L60
 860 001a 1A60     		str	r2, [r3]
 695:.\Generated_Source\PSoC5/ADC_SAR.c **** }
 861              		.loc 1 695 0
 862 001c 0C37     		adds	r7, r7, #12
 863              		.cfi_def_cfa_offset 4
 864 001e BD46     		mov	sp, r7
 865              		.cfi_def_cfa_register 13
 866              		@ sp needed
 867 0020 5DF8047B 		ldr	r7, [sp], #4
 868              		.cfi_restore 7
 869              		.cfi_def_cfa_offset 0
 870 0024 7047     		bx	lr
 871              	.L61:
 872 0026 00BF     		.align	2
 873              	.L60:
 874 0028 00000000 		.word	ADC_SAR_countsPer10Volt
 875              		.cfi_endproc
 876              	.LFE13:
 877              		.size	ADC_SAR_SetGain, .-ADC_SAR_SetGain
 878              		.section	.text.ADC_SAR_SetScaledGain,"ax",%progbits
 879              		.align	2
 880              		.global	ADC_SAR_SetScaledGain
 881              		.thumb
 882              		.thumb_func
 883              		.type	ADC_SAR_SetScaledGain, %function
 884              	ADC_SAR_SetScaledGain:
 885              	.LFB14:
 696:.\Generated_Source\PSoC5/ADC_SAR.c **** 
 697:.\Generated_Source\PSoC5/ADC_SAR.c **** 
 698:.\Generated_Source\PSoC5/ADC_SAR.c **** /*******************************************************************************
 699:.\Generated_Source\PSoC5/ADC_SAR.c **** * Function Name: ADC_SAR_SetScaledGain
 700:.\Generated_Source\PSoC5/ADC_SAR.c **** ********************************************************************************
 701:.\Generated_Source\PSoC5/ADC_SAR.c **** *
 702:.\Generated_Source\PSoC5/ADC_SAR.c **** * Summary:
 703:.\Generated_Source\PSoC5/ADC_SAR.c **** *  Sets the ADC gain in counts per 10 volt for the voltage conversion functions
 704:.\Generated_Source\PSoC5/ADC_SAR.c **** *  that follow. This value is set by default by the reference and input range
 705:.\Generated_Source\PSoC5/ADC_SAR.c **** *  settings. It should only be used to further calibrate the ADC with a known
 706:.\Generated_Source\PSoC5/ADC_SAR.c **** *  input or if the ADC is using an external reference.
 707:.\Generated_Source\PSoC5/ADC_SAR.c **** *
 708:.\Generated_Source\PSoC5/ADC_SAR.c **** * Parameters:
 709:.\Generated_Source\PSoC5/ADC_SAR.c **** *  int32 adcGain  counts per 10 volt
 710:.\Generated_Source\PSoC5/ADC_SAR.c **** *
ARM GAS  C:\Users\rdso323\AppData\Local\Temp\ccykTKjP.s 			page 29


 711:.\Generated_Source\PSoC5/ADC_SAR.c **** * Return:
 712:.\Generated_Source\PSoC5/ADC_SAR.c **** *  None.
 713:.\Generated_Source\PSoC5/ADC_SAR.c **** *
 714:.\Generated_Source\PSoC5/ADC_SAR.c **** * Global Variables:
 715:.\Generated_Source\PSoC5/ADC_SAR.c **** *  ADC_SAR_countsPer10Volt variable modified. This variable is used
 716:.\Generated_Source\PSoC5/ADC_SAR.c **** *  for gain calibration purpose.
 717:.\Generated_Source\PSoC5/ADC_SAR.c **** *
 718:.\Generated_Source\PSoC5/ADC_SAR.c **** *******************************************************************************/
 719:.\Generated_Source\PSoC5/ADC_SAR.c **** void ADC_SAR_SetScaledGain(int32 adcGain)
 720:.\Generated_Source\PSoC5/ADC_SAR.c **** {
 886              		.loc 1 720 0
 887              		.cfi_startproc
 888              		@ args = 0, pretend = 0, frame = 8
 889              		@ frame_needed = 1, uses_anonymous_args = 0
 890              		@ link register save eliminated.
 891 0000 80B4     		push	{r7}
 892              		.cfi_def_cfa_offset 4
 893              		.cfi_offset 7, -4
 894 0002 83B0     		sub	sp, sp, #12
 895              		.cfi_def_cfa_offset 16
 896 0004 00AF     		add	r7, sp, #0
 897              		.cfi_def_cfa_register 7
 898 0006 7860     		str	r0, [r7, #4]
 721:.\Generated_Source\PSoC5/ADC_SAR.c ****     ADC_SAR_countsPer10Volt = adcGain;
 899              		.loc 1 721 0
 900 0008 034A     		ldr	r2, .L63
 901 000a 7B68     		ldr	r3, [r7, #4]
 902 000c 1360     		str	r3, [r2]
 722:.\Generated_Source\PSoC5/ADC_SAR.c **** }
 903              		.loc 1 722 0
 904 000e 0C37     		adds	r7, r7, #12
 905              		.cfi_def_cfa_offset 4
 906 0010 BD46     		mov	sp, r7
 907              		.cfi_def_cfa_register 13
 908              		@ sp needed
 909 0012 5DF8047B 		ldr	r7, [sp], #4
 910              		.cfi_restore 7
 911              		.cfi_def_cfa_offset 0
 912 0016 7047     		bx	lr
 913              	.L64:
 914              		.align	2
 915              	.L63:
 916 0018 00000000 		.word	ADC_SAR_countsPer10Volt
 917              		.cfi_endproc
 918              	.LFE14:
 919              		.size	ADC_SAR_SetScaledGain, .-ADC_SAR_SetScaledGain
 920              		.section	.text.ADC_SAR_CountsTo_mVolts,"ax",%progbits
 921              		.align	2
 922              		.global	ADC_SAR_CountsTo_mVolts
 923              		.thumb
 924              		.thumb_func
 925              		.type	ADC_SAR_CountsTo_mVolts, %function
 926              	ADC_SAR_CountsTo_mVolts:
 927              	.LFB15:
 723:.\Generated_Source\PSoC5/ADC_SAR.c **** 
 724:.\Generated_Source\PSoC5/ADC_SAR.c **** 
 725:.\Generated_Source\PSoC5/ADC_SAR.c **** /*******************************************************************************
ARM GAS  C:\Users\rdso323\AppData\Local\Temp\ccykTKjP.s 			page 30


 726:.\Generated_Source\PSoC5/ADC_SAR.c **** * Function Name: ADC_SAR_CountsTo_mVolts
 727:.\Generated_Source\PSoC5/ADC_SAR.c **** ********************************************************************************
 728:.\Generated_Source\PSoC5/ADC_SAR.c **** *
 729:.\Generated_Source\PSoC5/ADC_SAR.c **** * Summary:
 730:.\Generated_Source\PSoC5/ADC_SAR.c **** *  Converts the ADC output to millivolts as a 16-bit integer.
 731:.\Generated_Source\PSoC5/ADC_SAR.c **** *
 732:.\Generated_Source\PSoC5/ADC_SAR.c **** * Parameters:
 733:.\Generated_Source\PSoC5/ADC_SAR.c **** *  int16 adcCounts:  Result from the ADC conversion
 734:.\Generated_Source\PSoC5/ADC_SAR.c **** *
 735:.\Generated_Source\PSoC5/ADC_SAR.c **** * Return:
 736:.\Generated_Source\PSoC5/ADC_SAR.c **** *  int16 Result in mVolts
 737:.\Generated_Source\PSoC5/ADC_SAR.c **** *
 738:.\Generated_Source\PSoC5/ADC_SAR.c **** * Global Variables:
 739:.\Generated_Source\PSoC5/ADC_SAR.c **** *  ADC_SAR_offset variable used.
 740:.\Generated_Source\PSoC5/ADC_SAR.c **** *  ADC_SAR_countsPer10Volt variable used.
 741:.\Generated_Source\PSoC5/ADC_SAR.c **** *
 742:.\Generated_Source\PSoC5/ADC_SAR.c **** *******************************************************************************/
 743:.\Generated_Source\PSoC5/ADC_SAR.c **** int16 ADC_SAR_CountsTo_mVolts(int16 adcCounts)
 744:.\Generated_Source\PSoC5/ADC_SAR.c **** {
 928              		.loc 1 744 0
 929              		.cfi_startproc
 930              		@ args = 0, pretend = 0, frame = 16
 931              		@ frame_needed = 1, uses_anonymous_args = 0
 932              		@ link register save eliminated.
 933 0000 80B4     		push	{r7}
 934              		.cfi_def_cfa_offset 4
 935              		.cfi_offset 7, -4
 936 0002 85B0     		sub	sp, sp, #20
 937              		.cfi_def_cfa_offset 24
 938 0004 00AF     		add	r7, sp, #0
 939              		.cfi_def_cfa_register 7
 940 0006 0346     		mov	r3, r0
 941 0008 FB80     		strh	r3, [r7, #6]	@ movhi
 745:.\Generated_Source\PSoC5/ADC_SAR.c ****     int16 mVolts;
 746:.\Generated_Source\PSoC5/ADC_SAR.c ****     int32 countsPer10Volt;
 747:.\Generated_Source\PSoC5/ADC_SAR.c **** 
 748:.\Generated_Source\PSoC5/ADC_SAR.c ****     if(ADC_SAR_countsPerVolt != 0)
 942              		.loc 1 748 0
 943 000a 1D4B     		ldr	r3, .L71
 944 000c 1B88     		ldrh	r3, [r3]	@ movhi
 945 000e 9BB2     		uxth	r3, r3
 946 0010 002B     		cmp	r3, #0
 947 0012 09D0     		beq	.L66
 749:.\Generated_Source\PSoC5/ADC_SAR.c ****     {   /* Support obsolete method */
 750:.\Generated_Source\PSoC5/ADC_SAR.c ****         countsPer10Volt = (int32)ADC_SAR_countsPerVolt * 10;
 948              		.loc 1 750 0
 949 0014 1A4B     		ldr	r3, .L71
 950 0016 1B88     		ldrh	r3, [r3]	@ movhi
 951 0018 9BB2     		uxth	r3, r3
 952 001a 1AB2     		sxth	r2, r3
 953 001c 1346     		mov	r3, r2
 954 001e 9B00     		lsls	r3, r3, #2
 955 0020 1344     		add	r3, r3, r2
 956 0022 5B00     		lsls	r3, r3, #1
 957 0024 FB60     		str	r3, [r7, #12]
 958 0026 02E0     		b	.L67
 959              	.L66:
ARM GAS  C:\Users\rdso323\AppData\Local\Temp\ccykTKjP.s 			page 31


 751:.\Generated_Source\PSoC5/ADC_SAR.c ****     }
 752:.\Generated_Source\PSoC5/ADC_SAR.c ****     else
 753:.\Generated_Source\PSoC5/ADC_SAR.c ****     {
 754:.\Generated_Source\PSoC5/ADC_SAR.c ****         countsPer10Volt = ADC_SAR_countsPer10Volt;
 960              		.loc 1 754 0
 961 0028 164B     		ldr	r3, .L71+4
 962 002a 1B68     		ldr	r3, [r3]
 963 002c FB60     		str	r3, [r7, #12]
 964              	.L67:
 755:.\Generated_Source\PSoC5/ADC_SAR.c ****     }
 756:.\Generated_Source\PSoC5/ADC_SAR.c **** 
 757:.\Generated_Source\PSoC5/ADC_SAR.c ****     /* Subtract ADC offset */
 758:.\Generated_Source\PSoC5/ADC_SAR.c ****     adcCounts -= ADC_SAR_offset;
 965              		.loc 1 758 0
 966 002e 164B     		ldr	r3, .L71+8
 967 0030 1B88     		ldrh	r3, [r3]	@ movhi
 968 0032 9BB2     		uxth	r3, r3
 969 0034 FA88     		ldrh	r2, [r7, #6]
 970 0036 9BB2     		uxth	r3, r3
 971 0038 D31A     		subs	r3, r2, r3
 972 003a 9BB2     		uxth	r3, r3
 973 003c FB80     		strh	r3, [r7, #6]	@ movhi
 759:.\Generated_Source\PSoC5/ADC_SAR.c ****     /* Convert to millivolts with rounding */
 760:.\Generated_Source\PSoC5/ADC_SAR.c ****     mVolts = (int16)( (( (int32)adcCounts * ADC_SAR_10MV_COUNTS ) + ( (adcCounts > 0) ?
 974              		.loc 1 760 0
 975 003e B7F90630 		ldrsh	r3, [r7, #6]
 976 0042 42F21072 		movw	r2, #10000
 977 0046 02FB03F2 		mul	r2, r2, r3
 761:.\Generated_Source\PSoC5/ADC_SAR.c ****                        (countsPer10Volt / 2) : (-(countsPer10Volt / 2)) )) / countsPer10Volt);
 978              		.loc 1 761 0
 979 004a B7F90630 		ldrsh	r3, [r7, #6]
 980 004e 002B     		cmp	r3, #0
 981 0050 04DD     		ble	.L68
 982              		.loc 1 761 0 is_stmt 0 discriminator 1
 983 0052 FB68     		ldr	r3, [r7, #12]
 984 0054 D90F     		lsrs	r1, r3, #31
 985 0056 0B44     		add	r3, r3, r1
 986 0058 5B10     		asrs	r3, r3, #1
 987 005a 04E0     		b	.L69
 988              	.L68:
 989              		.loc 1 761 0 discriminator 2
 990 005c FB68     		ldr	r3, [r7, #12]
 991 005e D90F     		lsrs	r1, r3, #31
 992 0060 0B44     		add	r3, r3, r1
 993 0062 5B10     		asrs	r3, r3, #1
 994 0064 5B42     		negs	r3, r3
 995              	.L69:
 760:.\Generated_Source\PSoC5/ADC_SAR.c ****                        (countsPer10Volt / 2) : (-(countsPer10Volt / 2)) )) / countsPer10Volt);
 996              		.loc 1 760 0 is_stmt 1
 997 0066 1A44     		add	r2, r2, r3
 998              		.loc 1 761 0
 999 0068 FB68     		ldr	r3, [r7, #12]
 1000 006a 92FBF3F3 		sdiv	r3, r2, r3
 760:.\Generated_Source\PSoC5/ADC_SAR.c ****                        (countsPer10Volt / 2) : (-(countsPer10Volt / 2)) )) / countsPer10Volt);
 1001              		.loc 1 760 0
 1002 006e 7B81     		strh	r3, [r7, #10]	@ movhi
 762:.\Generated_Source\PSoC5/ADC_SAR.c **** 
ARM GAS  C:\Users\rdso323\AppData\Local\Temp\ccykTKjP.s 			page 32


 763:.\Generated_Source\PSoC5/ADC_SAR.c ****     return( mVolts );
 1003              		.loc 1 763 0
 1004 0070 7B89     		ldrh	r3, [r7, #10]
 1005 0072 1BB2     		sxth	r3, r3
 764:.\Generated_Source\PSoC5/ADC_SAR.c **** }
 1006              		.loc 1 764 0
 1007 0074 1846     		mov	r0, r3
 1008 0076 1437     		adds	r7, r7, #20
 1009              		.cfi_def_cfa_offset 4
 1010 0078 BD46     		mov	sp, r7
 1011              		.cfi_def_cfa_register 13
 1012              		@ sp needed
 1013 007a 5DF8047B 		ldr	r7, [sp], #4
 1014              		.cfi_restore 7
 1015              		.cfi_def_cfa_offset 0
 1016 007e 7047     		bx	lr
 1017              	.L72:
 1018              		.align	2
 1019              	.L71:
 1020 0080 00000000 		.word	ADC_SAR_countsPerVolt
 1021 0084 00000000 		.word	ADC_SAR_countsPer10Volt
 1022 0088 00000000 		.word	ADC_SAR_offset
 1023              		.cfi_endproc
 1024              	.LFE15:
 1025              		.size	ADC_SAR_CountsTo_mVolts, .-ADC_SAR_CountsTo_mVolts
 1026              		.global	__aeabi_ldivmod
 1027              		.section	.text.ADC_SAR_CountsTo_uVolts,"ax",%progbits
 1028              		.align	2
 1029              		.global	ADC_SAR_CountsTo_uVolts
 1030              		.thumb
 1031              		.thumb_func
 1032              		.type	ADC_SAR_CountsTo_uVolts, %function
 1033              	ADC_SAR_CountsTo_uVolts:
 1034              	.LFB16:
 765:.\Generated_Source\PSoC5/ADC_SAR.c **** 
 766:.\Generated_Source\PSoC5/ADC_SAR.c **** 
 767:.\Generated_Source\PSoC5/ADC_SAR.c **** /*******************************************************************************
 768:.\Generated_Source\PSoC5/ADC_SAR.c **** * Function Name: ADC_SAR_CountsTo_uVolts
 769:.\Generated_Source\PSoC5/ADC_SAR.c **** ********************************************************************************
 770:.\Generated_Source\PSoC5/ADC_SAR.c **** *
 771:.\Generated_Source\PSoC5/ADC_SAR.c **** * Summary:
 772:.\Generated_Source\PSoC5/ADC_SAR.c **** *  Converts the ADC output to microvolts as a 32-bit integer.
 773:.\Generated_Source\PSoC5/ADC_SAR.c **** *
 774:.\Generated_Source\PSoC5/ADC_SAR.c **** * Parameters:
 775:.\Generated_Source\PSoC5/ADC_SAR.c **** *  int16 adcCounts: Result from the ADC conversion
 776:.\Generated_Source\PSoC5/ADC_SAR.c **** *
 777:.\Generated_Source\PSoC5/ADC_SAR.c **** * Return:
 778:.\Generated_Source\PSoC5/ADC_SAR.c **** *  int32 Result in micro Volts
 779:.\Generated_Source\PSoC5/ADC_SAR.c **** *
 780:.\Generated_Source\PSoC5/ADC_SAR.c **** * Global Variables:
 781:.\Generated_Source\PSoC5/ADC_SAR.c **** *  ADC_SAR_offset variable used.
 782:.\Generated_Source\PSoC5/ADC_SAR.c **** *  ADC_SAR_countsPer10Volt used to convert ADC counts to uVolts.
 783:.\Generated_Source\PSoC5/ADC_SAR.c **** *
 784:.\Generated_Source\PSoC5/ADC_SAR.c **** *******************************************************************************/
 785:.\Generated_Source\PSoC5/ADC_SAR.c **** int32 ADC_SAR_CountsTo_uVolts(int16 adcCounts)
 786:.\Generated_Source\PSoC5/ADC_SAR.c **** {
 1035              		.loc 1 786 0
ARM GAS  C:\Users\rdso323\AppData\Local\Temp\ccykTKjP.s 			page 33


 1036              		.cfi_startproc
 1037              		@ args = 0, pretend = 0, frame = 24
 1038              		@ frame_needed = 1, uses_anonymous_args = 0
 1039 0000 B0B5     		push	{r4, r5, r7, lr}
 1040              		.cfi_def_cfa_offset 16
 1041              		.cfi_offset 4, -16
 1042              		.cfi_offset 5, -12
 1043              		.cfi_offset 7, -8
 1044              		.cfi_offset 14, -4
 1045 0002 86B0     		sub	sp, sp, #24
 1046              		.cfi_def_cfa_offset 40
 1047 0004 00AF     		add	r7, sp, #0
 1048              		.cfi_def_cfa_register 7
 1049 0006 0346     		mov	r3, r0
 1050 0008 FB80     		strh	r3, [r7, #6]	@ movhi
 787:.\Generated_Source\PSoC5/ADC_SAR.c **** 
 788:.\Generated_Source\PSoC5/ADC_SAR.c ****     int64 uVolts;
 789:.\Generated_Source\PSoC5/ADC_SAR.c ****     int32 countsPer10Volt;
 790:.\Generated_Source\PSoC5/ADC_SAR.c **** 
 791:.\Generated_Source\PSoC5/ADC_SAR.c ****     if(ADC_SAR_countsPerVolt != 0)
 1051              		.loc 1 791 0
 1052 000a 1E4B     		ldr	r3, .L77
 1053 000c 1B88     		ldrh	r3, [r3]	@ movhi
 1054 000e 9BB2     		uxth	r3, r3
 1055 0010 002B     		cmp	r3, #0
 1056 0012 09D0     		beq	.L74
 792:.\Generated_Source\PSoC5/ADC_SAR.c ****     {   /* Support obsolete method */
 793:.\Generated_Source\PSoC5/ADC_SAR.c ****         countsPer10Volt = (int32)ADC_SAR_countsPerVolt * 10;
 1057              		.loc 1 793 0
 1058 0014 1B4B     		ldr	r3, .L77
 1059 0016 1B88     		ldrh	r3, [r3]	@ movhi
 1060 0018 9BB2     		uxth	r3, r3
 1061 001a 1AB2     		sxth	r2, r3
 1062 001c 1346     		mov	r3, r2
 1063 001e 9B00     		lsls	r3, r3, #2
 1064 0020 1344     		add	r3, r3, r2
 1065 0022 5B00     		lsls	r3, r3, #1
 1066 0024 7B61     		str	r3, [r7, #20]
 1067 0026 02E0     		b	.L75
 1068              	.L74:
 794:.\Generated_Source\PSoC5/ADC_SAR.c ****     }
 795:.\Generated_Source\PSoC5/ADC_SAR.c ****     else
 796:.\Generated_Source\PSoC5/ADC_SAR.c ****     {
 797:.\Generated_Source\PSoC5/ADC_SAR.c ****         countsPer10Volt = ADC_SAR_countsPer10Volt;
 1069              		.loc 1 797 0
 1070 0028 174B     		ldr	r3, .L77+4
 1071 002a 1B68     		ldr	r3, [r3]
 1072 002c 7B61     		str	r3, [r7, #20]
 1073              	.L75:
 798:.\Generated_Source\PSoC5/ADC_SAR.c ****     }
 799:.\Generated_Source\PSoC5/ADC_SAR.c **** 
 800:.\Generated_Source\PSoC5/ADC_SAR.c ****     /* Subtract ADC offset */
 801:.\Generated_Source\PSoC5/ADC_SAR.c ****     adcCounts -= ADC_SAR_offset;
 1074              		.loc 1 801 0
 1075 002e 174B     		ldr	r3, .L77+8
 1076 0030 1B88     		ldrh	r3, [r3]	@ movhi
 1077 0032 9BB2     		uxth	r3, r3
ARM GAS  C:\Users\rdso323\AppData\Local\Temp\ccykTKjP.s 			page 34


 1078 0034 FA88     		ldrh	r2, [r7, #6]
 1079 0036 9BB2     		uxth	r3, r3
 1080 0038 D31A     		subs	r3, r2, r3
 1081 003a 9BB2     		uxth	r3, r3
 1082 003c FB80     		strh	r3, [r7, #6]	@ movhi
 802:.\Generated_Source\PSoC5/ADC_SAR.c ****     /* To convert adcCounts to microVolts it is required to be multiplied
 803:.\Generated_Source\PSoC5/ADC_SAR.c ****     *  on 10 million and later divide on gain in counts per 10V.
 804:.\Generated_Source\PSoC5/ADC_SAR.c ****     */
 805:.\Generated_Source\PSoC5/ADC_SAR.c ****     uVolts = (( (int64)adcCounts * ADC_SAR_10UV_COUNTS ) / countsPer10Volt);
 1083              		.loc 1 805 0
 1084 003e B7F90620 		ldrsh	r2, [r7, #6]
 1085 0042 4FEAE273 		asr	r3, r2, #31
 1086 0046 1249     		ldr	r1, .L77+12
 1087 0048 01FB03F0 		mul	r0, r1, r3
 1088 004c 0021     		movs	r1, #0
 1089 004e 01FB02F1 		mul	r1, r1, r2
 1090 0052 0144     		add	r1, r1, r0
 1091 0054 0E48     		ldr	r0, .L77+12
 1092 0056 A2FB0023 		umull	r2, r3, r2, r0
 1093 005a 1944     		add	r1, r1, r3
 1094 005c 0B46     		mov	r3, r1
 1095 005e 7969     		ldr	r1, [r7, #20]
 1096 0060 0C46     		mov	r4, r1
 1097 0062 4FEAE475 		asr	r5, r4, #31
 1098 0066 1046     		mov	r0, r2
 1099 0068 1946     		mov	r1, r3
 1100 006a 2246     		mov	r2, r4
 1101 006c 2B46     		mov	r3, r5
 1102 006e FFF7FEFF 		bl	__aeabi_ldivmod
 1103 0072 0246     		mov	r2, r0
 1104 0074 0B46     		mov	r3, r1
 1105 0076 C7E90223 		strd	r2, [r7, #8]
 806:.\Generated_Source\PSoC5/ADC_SAR.c **** 
 807:.\Generated_Source\PSoC5/ADC_SAR.c ****     return( uVolts );
 1106              		.loc 1 807 0
 1107 007a BB68     		ldr	r3, [r7, #8]
 808:.\Generated_Source\PSoC5/ADC_SAR.c **** }
 1108              		.loc 1 808 0
 1109 007c 1846     		mov	r0, r3
 1110 007e 1837     		adds	r7, r7, #24
 1111              		.cfi_def_cfa_offset 16
 1112 0080 BD46     		mov	sp, r7
 1113              		.cfi_def_cfa_register 13
 1114              		@ sp needed
 1115 0082 B0BD     		pop	{r4, r5, r7, pc}
 1116              	.L78:
 1117              		.align	2
 1118              	.L77:
 1119 0084 00000000 		.word	ADC_SAR_countsPerVolt
 1120 0088 00000000 		.word	ADC_SAR_countsPer10Volt
 1121 008c 00000000 		.word	ADC_SAR_offset
 1122 0090 80969800 		.word	10000000
 1123              		.cfi_endproc
 1124              	.LFE16:
 1125              		.size	ADC_SAR_CountsTo_uVolts, .-ADC_SAR_CountsTo_uVolts
 1126              		.global	__aeabi_i2f
 1127              		.global	__aeabi_fmul
ARM GAS  C:\Users\rdso323\AppData\Local\Temp\ccykTKjP.s 			page 35


 1128              		.global	__aeabi_fdiv
 1129              		.section	.text.ADC_SAR_CountsTo_Volts,"ax",%progbits
 1130              		.align	2
 1131              		.global	ADC_SAR_CountsTo_Volts
 1132              		.thumb
 1133              		.thumb_func
 1134              		.type	ADC_SAR_CountsTo_Volts, %function
 1135              	ADC_SAR_CountsTo_Volts:
 1136              	.LFB17:
 809:.\Generated_Source\PSoC5/ADC_SAR.c **** 
 810:.\Generated_Source\PSoC5/ADC_SAR.c **** 
 811:.\Generated_Source\PSoC5/ADC_SAR.c **** /*******************************************************************************
 812:.\Generated_Source\PSoC5/ADC_SAR.c **** * Function Name: ADC_SAR_CountsTo_Volts
 813:.\Generated_Source\PSoC5/ADC_SAR.c **** ********************************************************************************
 814:.\Generated_Source\PSoC5/ADC_SAR.c **** *
 815:.\Generated_Source\PSoC5/ADC_SAR.c **** * Summary:
 816:.\Generated_Source\PSoC5/ADC_SAR.c **** *  Converts the ADC output to volts as a floating-point number.
 817:.\Generated_Source\PSoC5/ADC_SAR.c **** *
 818:.\Generated_Source\PSoC5/ADC_SAR.c **** * Parameters:
 819:.\Generated_Source\PSoC5/ADC_SAR.c **** *  int16 adcCounts: Result from the ADC conversion
 820:.\Generated_Source\PSoC5/ADC_SAR.c **** *
 821:.\Generated_Source\PSoC5/ADC_SAR.c **** * Return:
 822:.\Generated_Source\PSoC5/ADC_SAR.c **** *  float Result in Volts
 823:.\Generated_Source\PSoC5/ADC_SAR.c **** *
 824:.\Generated_Source\PSoC5/ADC_SAR.c **** * Global Variables:
 825:.\Generated_Source\PSoC5/ADC_SAR.c **** *  ADC_SAR_offset variable used.
 826:.\Generated_Source\PSoC5/ADC_SAR.c **** *  ADC_SAR_countsPer10Volt used to convert ADC counts to Volts.
 827:.\Generated_Source\PSoC5/ADC_SAR.c **** *
 828:.\Generated_Source\PSoC5/ADC_SAR.c **** *******************************************************************************/
 829:.\Generated_Source\PSoC5/ADC_SAR.c **** float32 ADC_SAR_CountsTo_Volts(int16 adcCounts)
 830:.\Generated_Source\PSoC5/ADC_SAR.c **** {
 1137              		.loc 1 830 0
 1138              		.cfi_startproc
 1139              		@ args = 0, pretend = 0, frame = 16
 1140              		@ frame_needed = 1, uses_anonymous_args = 0
 1141 0000 90B5     		push	{r4, r7, lr}
 1142              		.cfi_def_cfa_offset 12
 1143              		.cfi_offset 4, -12
 1144              		.cfi_offset 7, -8
 1145              		.cfi_offset 14, -4
 1146 0002 85B0     		sub	sp, sp, #20
 1147              		.cfi_def_cfa_offset 32
 1148 0004 00AF     		add	r7, sp, #0
 1149              		.cfi_def_cfa_register 7
 1150 0006 0346     		mov	r3, r0
 1151 0008 FB80     		strh	r3, [r7, #6]	@ movhi
 831:.\Generated_Source\PSoC5/ADC_SAR.c ****     float32 volts;
 832:.\Generated_Source\PSoC5/ADC_SAR.c ****     int32 countsPer10Volt;
 833:.\Generated_Source\PSoC5/ADC_SAR.c **** 
 834:.\Generated_Source\PSoC5/ADC_SAR.c ****     if(ADC_SAR_countsPerVolt != 0)
 1152              		.loc 1 834 0
 1153 000a 1A4B     		ldr	r3, .L83
 1154 000c 1B88     		ldrh	r3, [r3]	@ movhi
 1155 000e 9BB2     		uxth	r3, r3
 1156 0010 002B     		cmp	r3, #0
 1157 0012 09D0     		beq	.L80
 835:.\Generated_Source\PSoC5/ADC_SAR.c ****     {   /* Support obsolete method */
ARM GAS  C:\Users\rdso323\AppData\Local\Temp\ccykTKjP.s 			page 36


 836:.\Generated_Source\PSoC5/ADC_SAR.c ****         countsPer10Volt = (int32)ADC_SAR_countsPerVolt * 10;
 1158              		.loc 1 836 0
 1159 0014 174B     		ldr	r3, .L83
 1160 0016 1B88     		ldrh	r3, [r3]	@ movhi
 1161 0018 9BB2     		uxth	r3, r3
 1162 001a 1AB2     		sxth	r2, r3
 1163 001c 1346     		mov	r3, r2
 1164 001e 9B00     		lsls	r3, r3, #2
 1165 0020 1344     		add	r3, r3, r2
 1166 0022 5B00     		lsls	r3, r3, #1
 1167 0024 FB60     		str	r3, [r7, #12]
 1168 0026 02E0     		b	.L81
 1169              	.L80:
 837:.\Generated_Source\PSoC5/ADC_SAR.c ****     }
 838:.\Generated_Source\PSoC5/ADC_SAR.c ****     else
 839:.\Generated_Source\PSoC5/ADC_SAR.c ****     {
 840:.\Generated_Source\PSoC5/ADC_SAR.c ****         countsPer10Volt = ADC_SAR_countsPer10Volt;
 1170              		.loc 1 840 0
 1171 0028 134B     		ldr	r3, .L83+4
 1172 002a 1B68     		ldr	r3, [r3]
 1173 002c FB60     		str	r3, [r7, #12]
 1174              	.L81:
 841:.\Generated_Source\PSoC5/ADC_SAR.c ****     }
 842:.\Generated_Source\PSoC5/ADC_SAR.c **** 
 843:.\Generated_Source\PSoC5/ADC_SAR.c ****     /* Subtract ADC offset */
 844:.\Generated_Source\PSoC5/ADC_SAR.c ****     adcCounts -= ADC_SAR_offset;
 1175              		.loc 1 844 0
 1176 002e 134B     		ldr	r3, .L83+8
 1177 0030 1B88     		ldrh	r3, [r3]	@ movhi
 1178 0032 9BB2     		uxth	r3, r3
 1179 0034 FA88     		ldrh	r2, [r7, #6]
 1180 0036 9BB2     		uxth	r3, r3
 1181 0038 D31A     		subs	r3, r2, r3
 1182 003a 9BB2     		uxth	r3, r3
 1183 003c FB80     		strh	r3, [r7, #6]	@ movhi
 845:.\Generated_Source\PSoC5/ADC_SAR.c **** 
 846:.\Generated_Source\PSoC5/ADC_SAR.c ****     volts = ((float32)adcCounts * ADC_SAR_10V_COUNTS) / (float32)countsPer10Volt;
 1184              		.loc 1 846 0
 1185 003e B7F90630 		ldrsh	r3, [r7, #6]
 1186 0042 1846     		mov	r0, r3
 1187 0044 FFF7FEFF 		bl	__aeabi_i2f
 1188 0048 0346     		mov	r3, r0
 1189 004a 1846     		mov	r0, r3
 1190 004c 0C49     		ldr	r1, .L83+12
 1191 004e FFF7FEFF 		bl	__aeabi_fmul
 1192 0052 0346     		mov	r3, r0
 1193 0054 1C46     		mov	r4, r3
 1194 0056 F868     		ldr	r0, [r7, #12]
 1195 0058 FFF7FEFF 		bl	__aeabi_i2f
 1196 005c 0346     		mov	r3, r0
 1197 005e 2046     		mov	r0, r4
 1198 0060 1946     		mov	r1, r3
 1199 0062 FFF7FEFF 		bl	__aeabi_fdiv
 1200 0066 0346     		mov	r3, r0
 1201 0068 BB60     		str	r3, [r7, #8]	@ float
 847:.\Generated_Source\PSoC5/ADC_SAR.c **** 
 848:.\Generated_Source\PSoC5/ADC_SAR.c ****     return( volts );
ARM GAS  C:\Users\rdso323\AppData\Local\Temp\ccykTKjP.s 			page 37


 1202              		.loc 1 848 0
 1203 006a BB68     		ldr	r3, [r7, #8]	@ float
 849:.\Generated_Source\PSoC5/ADC_SAR.c **** }
 1204              		.loc 1 849 0
 1205 006c 1846     		mov	r0, r3
 1206 006e 1437     		adds	r7, r7, #20
 1207              		.cfi_def_cfa_offset 12
 1208 0070 BD46     		mov	sp, r7
 1209              		.cfi_def_cfa_register 13
 1210              		@ sp needed
 1211 0072 90BD     		pop	{r4, r7, pc}
 1212              	.L84:
 1213              		.align	2
 1214              	.L83:
 1215 0074 00000000 		.word	ADC_SAR_countsPerVolt
 1216 0078 00000000 		.word	ADC_SAR_countsPer10Volt
 1217 007c 00000000 		.word	ADC_SAR_offset
 1218 0080 00002041 		.word	1092616192
 1219              		.cfi_endproc
 1220              	.LFE17:
 1221              		.size	ADC_SAR_CountsTo_Volts, .-ADC_SAR_CountsTo_Volts
 1222              		.text
 1223              	.Letext0:
 1224              		.file 2 ".\\Generated_Source\\PSoC5\\cytypes.h"