ARM GAS  C:\Users\rdso323\AppData\Local\Temp\cckxmOWR.s 			page 1


   1              		.syntax unified
   2              		.cpu cortex-m3
   3              		.fpu softvfp
   4              		.eabi_attribute 20, 1
   5              		.eabi_attribute 21, 1
   6              		.eabi_attribute 23, 3
   7              		.eabi_attribute 24, 1
   8              		.eabi_attribute 25, 1
   9              		.eabi_attribute 26, 1
  10              		.eabi_attribute 30, 6
  11              		.eabi_attribute 34, 1
  12              		.eabi_attribute 18, 4
  13              		.thumb
  14              		.file	"isr_eoc.c"
  15              		.text
  16              	.Ltext0:
  17              		.cfi_sections	.debug_frame
  18              		.section	.text.isr_eoc_Start,"ax",%progbits
  19              		.align	2
  20              		.global	isr_eoc_Start
  21              		.thumb
  22              		.thumb_func
  23              		.type	isr_eoc_Start, %function
  24              	isr_eoc_Start:
  25              	.LFB63:
  26              		.file 1 ".\\Generated_Source\\PSoC5\\isr_eoc.c"
   1:.\Generated_Source\PSoC5/isr_eoc.c **** /*******************************************************************************
   2:.\Generated_Source\PSoC5/isr_eoc.c **** * File Name: isr_eoc.c  
   3:.\Generated_Source\PSoC5/isr_eoc.c **** * Version 1.70
   4:.\Generated_Source\PSoC5/isr_eoc.c **** *
   5:.\Generated_Source\PSoC5/isr_eoc.c **** *  Description:
   6:.\Generated_Source\PSoC5/isr_eoc.c **** *   API for controlling the state of an interrupt.
   7:.\Generated_Source\PSoC5/isr_eoc.c **** *
   8:.\Generated_Source\PSoC5/isr_eoc.c **** *
   9:.\Generated_Source\PSoC5/isr_eoc.c **** *  Note:
  10:.\Generated_Source\PSoC5/isr_eoc.c **** *
  11:.\Generated_Source\PSoC5/isr_eoc.c **** ********************************************************************************
  12:.\Generated_Source\PSoC5/isr_eoc.c **** * Copyright 2008-2015, Cypress Semiconductor Corporation.  All rights reserved.
  13:.\Generated_Source\PSoC5/isr_eoc.c **** * You may use this file only in accordance with the license, terms, conditions, 
  14:.\Generated_Source\PSoC5/isr_eoc.c **** * disclaimers, and limitations in the end user license agreement accompanying 
  15:.\Generated_Source\PSoC5/isr_eoc.c **** * the software package with which this file was provided.
  16:.\Generated_Source\PSoC5/isr_eoc.c **** *******************************************************************************/
  17:.\Generated_Source\PSoC5/isr_eoc.c **** 
  18:.\Generated_Source\PSoC5/isr_eoc.c **** 
  19:.\Generated_Source\PSoC5/isr_eoc.c **** #include <cydevice_trm.h>
  20:.\Generated_Source\PSoC5/isr_eoc.c **** #include <CyLib.h>
  21:.\Generated_Source\PSoC5/isr_eoc.c **** #include <isr_eoc.h>
  22:.\Generated_Source\PSoC5/isr_eoc.c **** 
  23:.\Generated_Source\PSoC5/isr_eoc.c **** 
  24:.\Generated_Source\PSoC5/isr_eoc.c **** #if !defined(isr_eoc__REMOVED) /* Check for removal by optimization */
  25:.\Generated_Source\PSoC5/isr_eoc.c **** 
  26:.\Generated_Source\PSoC5/isr_eoc.c **** /*******************************************************************************
  27:.\Generated_Source\PSoC5/isr_eoc.c **** *  Place your includes, defines and code here 
  28:.\Generated_Source\PSoC5/isr_eoc.c **** ********************************************************************************/
  29:.\Generated_Source\PSoC5/isr_eoc.c **** /* `#START isr_eoc_intc` */
  30:.\Generated_Source\PSoC5/isr_eoc.c **** #include <project.h>   
  31:.\Generated_Source\PSoC5/isr_eoc.c **** #include "defines.h"
ARM GAS  C:\Users\rdso323\AppData\Local\Temp\cckxmOWR.s 			page 2


  32:.\Generated_Source\PSoC5/isr_eoc.c **** extern uint16 adcvalue[8];
  33:.\Generated_Source\PSoC5/isr_eoc.c **** extern uint8 dataready_flag;
  34:.\Generated_Source\PSoC5/isr_eoc.c **** /* `#END` */
  35:.\Generated_Source\PSoC5/isr_eoc.c **** 
  36:.\Generated_Source\PSoC5/isr_eoc.c **** #ifndef CYINT_IRQ_BASE
  37:.\Generated_Source\PSoC5/isr_eoc.c **** #define CYINT_IRQ_BASE      16
  38:.\Generated_Source\PSoC5/isr_eoc.c **** #endif /* CYINT_IRQ_BASE */
  39:.\Generated_Source\PSoC5/isr_eoc.c **** #ifndef CYINT_VECT_TABLE
  40:.\Generated_Source\PSoC5/isr_eoc.c **** #define CYINT_VECT_TABLE    ((cyisraddress **) CYREG_NVIC_VECT_OFFSET)
  41:.\Generated_Source\PSoC5/isr_eoc.c **** #endif /* CYINT_VECT_TABLE */
  42:.\Generated_Source\PSoC5/isr_eoc.c **** 
  43:.\Generated_Source\PSoC5/isr_eoc.c **** /* Declared in startup, used to set unused interrupts to. */
  44:.\Generated_Source\PSoC5/isr_eoc.c **** CY_ISR_PROTO(IntDefaultHandler);
  45:.\Generated_Source\PSoC5/isr_eoc.c **** 
  46:.\Generated_Source\PSoC5/isr_eoc.c **** 
  47:.\Generated_Source\PSoC5/isr_eoc.c **** /*******************************************************************************
  48:.\Generated_Source\PSoC5/isr_eoc.c **** * Function Name: isr_eoc_Start
  49:.\Generated_Source\PSoC5/isr_eoc.c **** ********************************************************************************
  50:.\Generated_Source\PSoC5/isr_eoc.c **** *
  51:.\Generated_Source\PSoC5/isr_eoc.c **** * Summary:
  52:.\Generated_Source\PSoC5/isr_eoc.c **** *  Set up the interrupt and enable it. This function disables the interrupt, 
  53:.\Generated_Source\PSoC5/isr_eoc.c **** *  sets the default interrupt vector, sets the priority from the value in the
  54:.\Generated_Source\PSoC5/isr_eoc.c **** *  Design Wide Resources Interrupt Editor, then enables the interrupt to the 
  55:.\Generated_Source\PSoC5/isr_eoc.c **** *  interrupt controller.
  56:.\Generated_Source\PSoC5/isr_eoc.c **** *
  57:.\Generated_Source\PSoC5/isr_eoc.c **** * Parameters:  
  58:.\Generated_Source\PSoC5/isr_eoc.c **** *   None
  59:.\Generated_Source\PSoC5/isr_eoc.c **** *
  60:.\Generated_Source\PSoC5/isr_eoc.c **** * Return:
  61:.\Generated_Source\PSoC5/isr_eoc.c **** *   None
  62:.\Generated_Source\PSoC5/isr_eoc.c **** *
  63:.\Generated_Source\PSoC5/isr_eoc.c **** *******************************************************************************/
  64:.\Generated_Source\PSoC5/isr_eoc.c **** void isr_eoc_Start(void)
  65:.\Generated_Source\PSoC5/isr_eoc.c **** {
  27              		.loc 1 65 0
  28              		.cfi_startproc
  29              		@ args = 0, pretend = 0, frame = 0
  30              		@ frame_needed = 1, uses_anonymous_args = 0
  31 0000 80B5     		push	{r7, lr}
  32              		.cfi_def_cfa_offset 8
  33              		.cfi_offset 7, -8
  34              		.cfi_offset 14, -4
  35 0002 00AF     		add	r7, sp, #0
  36              		.cfi_def_cfa_register 7
  66:.\Generated_Source\PSoC5/isr_eoc.c ****     /* For all we know the interrupt is active. */
  67:.\Generated_Source\PSoC5/isr_eoc.c ****     isr_eoc_Disable();
  37              		.loc 1 67 0
  38 0004 FFF7FEFF 		bl	isr_eoc_Disable
  68:.\Generated_Source\PSoC5/isr_eoc.c **** 
  69:.\Generated_Source\PSoC5/isr_eoc.c ****     /* Set the ISR to point to the isr_eoc Interrupt. */
  70:.\Generated_Source\PSoC5/isr_eoc.c ****     isr_eoc_SetVector(&isr_eoc_Interrupt);
  39              		.loc 1 70 0
  40 0008 0448     		ldr	r0, .L2
  41 000a FFF7FEFF 		bl	isr_eoc_SetVector
  71:.\Generated_Source\PSoC5/isr_eoc.c **** 
  72:.\Generated_Source\PSoC5/isr_eoc.c ****     /* Set the priority. */
  73:.\Generated_Source\PSoC5/isr_eoc.c ****     isr_eoc_SetPriority((uint8)isr_eoc_INTC_PRIOR_NUMBER);
ARM GAS  C:\Users\rdso323\AppData\Local\Temp\cckxmOWR.s 			page 3


  42              		.loc 1 73 0
  43 000e 0720     		movs	r0, #7
  44 0010 FFF7FEFF 		bl	isr_eoc_SetPriority
  74:.\Generated_Source\PSoC5/isr_eoc.c **** 
  75:.\Generated_Source\PSoC5/isr_eoc.c ****     /* Enable it. */
  76:.\Generated_Source\PSoC5/isr_eoc.c ****     isr_eoc_Enable();
  45              		.loc 1 76 0
  46 0014 FFF7FEFF 		bl	isr_eoc_Enable
  77:.\Generated_Source\PSoC5/isr_eoc.c **** }
  47              		.loc 1 77 0
  48 0018 80BD     		pop	{r7, pc}
  49              	.L3:
  50 001a 00BF     		.align	2
  51              	.L2:
  52 001c 00000000 		.word	isr_eoc_Interrupt
  53              		.cfi_endproc
  54              	.LFE63:
  55              		.size	isr_eoc_Start, .-isr_eoc_Start
  56              		.section	.text.isr_eoc_StartEx,"ax",%progbits
  57              		.align	2
  58              		.global	isr_eoc_StartEx
  59              		.thumb
  60              		.thumb_func
  61              		.type	isr_eoc_StartEx, %function
  62              	isr_eoc_StartEx:
  63              	.LFB64:
  78:.\Generated_Source\PSoC5/isr_eoc.c **** 
  79:.\Generated_Source\PSoC5/isr_eoc.c **** 
  80:.\Generated_Source\PSoC5/isr_eoc.c **** /*******************************************************************************
  81:.\Generated_Source\PSoC5/isr_eoc.c **** * Function Name: isr_eoc_StartEx
  82:.\Generated_Source\PSoC5/isr_eoc.c **** ********************************************************************************
  83:.\Generated_Source\PSoC5/isr_eoc.c **** *
  84:.\Generated_Source\PSoC5/isr_eoc.c **** * Summary:
  85:.\Generated_Source\PSoC5/isr_eoc.c **** *  Sets up the interrupt and enables it. This function disables the interrupt,
  86:.\Generated_Source\PSoC5/isr_eoc.c **** *  sets the interrupt vector based on the address passed in, sets the priority 
  87:.\Generated_Source\PSoC5/isr_eoc.c **** *  from the value in the Design Wide Resources Interrupt Editor, then enables 
  88:.\Generated_Source\PSoC5/isr_eoc.c **** *  the interrupt to the interrupt controller.
  89:.\Generated_Source\PSoC5/isr_eoc.c **** *  
  90:.\Generated_Source\PSoC5/isr_eoc.c **** *  When defining ISR functions, the CY_ISR and CY_ISR_PROTO macros should be 
  91:.\Generated_Source\PSoC5/isr_eoc.c **** *  used to provide consistent definition across compilers:
  92:.\Generated_Source\PSoC5/isr_eoc.c **** *  
  93:.\Generated_Source\PSoC5/isr_eoc.c **** *  Function definition example:
  94:.\Generated_Source\PSoC5/isr_eoc.c **** *   CY_ISR(MyISR)
  95:.\Generated_Source\PSoC5/isr_eoc.c **** *   {
  96:.\Generated_Source\PSoC5/isr_eoc.c **** *   }
  97:.\Generated_Source\PSoC5/isr_eoc.c **** *   Function prototype example:
  98:.\Generated_Source\PSoC5/isr_eoc.c **** *   CY_ISR_PROTO(MyISR);
  99:.\Generated_Source\PSoC5/isr_eoc.c **** *
 100:.\Generated_Source\PSoC5/isr_eoc.c **** * Parameters:  
 101:.\Generated_Source\PSoC5/isr_eoc.c **** *   address: Address of the ISR to set in the interrupt vector table.
 102:.\Generated_Source\PSoC5/isr_eoc.c **** *
 103:.\Generated_Source\PSoC5/isr_eoc.c **** * Return:
 104:.\Generated_Source\PSoC5/isr_eoc.c **** *   None
 105:.\Generated_Source\PSoC5/isr_eoc.c **** *
 106:.\Generated_Source\PSoC5/isr_eoc.c **** *******************************************************************************/
 107:.\Generated_Source\PSoC5/isr_eoc.c **** void isr_eoc_StartEx(cyisraddress address)
 108:.\Generated_Source\PSoC5/isr_eoc.c **** {
ARM GAS  C:\Users\rdso323\AppData\Local\Temp\cckxmOWR.s 			page 4


  64              		.loc 1 108 0
  65              		.cfi_startproc
  66              		@ args = 0, pretend = 0, frame = 8
  67              		@ frame_needed = 1, uses_anonymous_args = 0
  68 0000 80B5     		push	{r7, lr}
  69              		.cfi_def_cfa_offset 8
  70              		.cfi_offset 7, -8
  71              		.cfi_offset 14, -4
  72 0002 82B0     		sub	sp, sp, #8
  73              		.cfi_def_cfa_offset 16
  74 0004 00AF     		add	r7, sp, #0
  75              		.cfi_def_cfa_register 7
  76 0006 7860     		str	r0, [r7, #4]
 109:.\Generated_Source\PSoC5/isr_eoc.c ****     /* For all we know the interrupt is active. */
 110:.\Generated_Source\PSoC5/isr_eoc.c ****     isr_eoc_Disable();
  77              		.loc 1 110 0
  78 0008 FFF7FEFF 		bl	isr_eoc_Disable
 111:.\Generated_Source\PSoC5/isr_eoc.c **** 
 112:.\Generated_Source\PSoC5/isr_eoc.c ****     /* Set the ISR to point to the isr_eoc Interrupt. */
 113:.\Generated_Source\PSoC5/isr_eoc.c ****     isr_eoc_SetVector(address);
  79              		.loc 1 113 0
  80 000c 7868     		ldr	r0, [r7, #4]
  81 000e FFF7FEFF 		bl	isr_eoc_SetVector
 114:.\Generated_Source\PSoC5/isr_eoc.c **** 
 115:.\Generated_Source\PSoC5/isr_eoc.c ****     /* Set the priority. */
 116:.\Generated_Source\PSoC5/isr_eoc.c ****     isr_eoc_SetPriority((uint8)isr_eoc_INTC_PRIOR_NUMBER);
  82              		.loc 1 116 0
  83 0012 0720     		movs	r0, #7
  84 0014 FFF7FEFF 		bl	isr_eoc_SetPriority
 117:.\Generated_Source\PSoC5/isr_eoc.c **** 
 118:.\Generated_Source\PSoC5/isr_eoc.c ****     /* Enable it. */
 119:.\Generated_Source\PSoC5/isr_eoc.c ****     isr_eoc_Enable();
  85              		.loc 1 119 0
  86 0018 FFF7FEFF 		bl	isr_eoc_Enable
 120:.\Generated_Source\PSoC5/isr_eoc.c **** }
  87              		.loc 1 120 0
  88 001c 0837     		adds	r7, r7, #8
  89              		.cfi_def_cfa_offset 8
  90 001e BD46     		mov	sp, r7
  91              		.cfi_def_cfa_register 13
  92              		@ sp needed
  93 0020 80BD     		pop	{r7, pc}
  94              		.cfi_endproc
  95              	.LFE64:
  96              		.size	isr_eoc_StartEx, .-isr_eoc_StartEx
  97 0022 00BF     		.section	.text.isr_eoc_Stop,"ax",%progbits
  98              		.align	2
  99              		.global	isr_eoc_Stop
 100              		.thumb
 101              		.thumb_func
 102              		.type	isr_eoc_Stop, %function
 103              	isr_eoc_Stop:
 104              	.LFB65:
 121:.\Generated_Source\PSoC5/isr_eoc.c **** 
 122:.\Generated_Source\PSoC5/isr_eoc.c **** 
 123:.\Generated_Source\PSoC5/isr_eoc.c **** /*******************************************************************************
 124:.\Generated_Source\PSoC5/isr_eoc.c **** * Function Name: isr_eoc_Stop
ARM GAS  C:\Users\rdso323\AppData\Local\Temp\cckxmOWR.s 			page 5


 125:.\Generated_Source\PSoC5/isr_eoc.c **** ********************************************************************************
 126:.\Generated_Source\PSoC5/isr_eoc.c **** *
 127:.\Generated_Source\PSoC5/isr_eoc.c **** * Summary:
 128:.\Generated_Source\PSoC5/isr_eoc.c **** *   Disables and removes the interrupt.
 129:.\Generated_Source\PSoC5/isr_eoc.c **** *
 130:.\Generated_Source\PSoC5/isr_eoc.c **** * Parameters:  
 131:.\Generated_Source\PSoC5/isr_eoc.c **** *   None
 132:.\Generated_Source\PSoC5/isr_eoc.c **** *
 133:.\Generated_Source\PSoC5/isr_eoc.c **** * Return:
 134:.\Generated_Source\PSoC5/isr_eoc.c **** *   None
 135:.\Generated_Source\PSoC5/isr_eoc.c **** *
 136:.\Generated_Source\PSoC5/isr_eoc.c **** *******************************************************************************/
 137:.\Generated_Source\PSoC5/isr_eoc.c **** void isr_eoc_Stop(void)
 138:.\Generated_Source\PSoC5/isr_eoc.c **** {
 105              		.loc 1 138 0
 106              		.cfi_startproc
 107              		@ args = 0, pretend = 0, frame = 0
 108              		@ frame_needed = 1, uses_anonymous_args = 0
 109 0000 80B5     		push	{r7, lr}
 110              		.cfi_def_cfa_offset 8
 111              		.cfi_offset 7, -8
 112              		.cfi_offset 14, -4
 113 0002 00AF     		add	r7, sp, #0
 114              		.cfi_def_cfa_register 7
 139:.\Generated_Source\PSoC5/isr_eoc.c ****     /* Disable this interrupt. */
 140:.\Generated_Source\PSoC5/isr_eoc.c ****     isr_eoc_Disable();
 115              		.loc 1 140 0
 116 0004 FFF7FEFF 		bl	isr_eoc_Disable
 141:.\Generated_Source\PSoC5/isr_eoc.c **** 
 142:.\Generated_Source\PSoC5/isr_eoc.c ****     /* Set the ISR to point to the passive one. */
 143:.\Generated_Source\PSoC5/isr_eoc.c ****     isr_eoc_SetVector(&IntDefaultHandler);
 117              		.loc 1 143 0
 118 0008 0148     		ldr	r0, .L6
 119 000a FFF7FEFF 		bl	isr_eoc_SetVector
 144:.\Generated_Source\PSoC5/isr_eoc.c **** }
 120              		.loc 1 144 0
 121 000e 80BD     		pop	{r7, pc}
 122              	.L7:
 123              		.align	2
 124              	.L6:
 125 0010 00000000 		.word	IntDefaultHandler
 126              		.cfi_endproc
 127              	.LFE65:
 128              		.size	isr_eoc_Stop, .-isr_eoc_Stop
 129              		.section	.text.isr_eoc_Interrupt,"ax",%progbits
 130              		.align	2
 131              		.global	isr_eoc_Interrupt
 132              		.thumb
 133              		.thumb_func
 134              		.type	isr_eoc_Interrupt, %function
 135              	isr_eoc_Interrupt:
 136              	.LFB66:
 145:.\Generated_Source\PSoC5/isr_eoc.c **** 
 146:.\Generated_Source\PSoC5/isr_eoc.c **** 
 147:.\Generated_Source\PSoC5/isr_eoc.c **** /*******************************************************************************
 148:.\Generated_Source\PSoC5/isr_eoc.c **** * Function Name: isr_eoc_Interrupt
 149:.\Generated_Source\PSoC5/isr_eoc.c **** ********************************************************************************
ARM GAS  C:\Users\rdso323\AppData\Local\Temp\cckxmOWR.s 			page 6


 150:.\Generated_Source\PSoC5/isr_eoc.c **** *
 151:.\Generated_Source\PSoC5/isr_eoc.c **** * Summary:
 152:.\Generated_Source\PSoC5/isr_eoc.c **** *   The default Interrupt Service Routine for isr_eoc.
 153:.\Generated_Source\PSoC5/isr_eoc.c **** *
 154:.\Generated_Source\PSoC5/isr_eoc.c **** *   Add custom code between the coments to keep the next version of this file
 155:.\Generated_Source\PSoC5/isr_eoc.c **** *   from over writting your code.
 156:.\Generated_Source\PSoC5/isr_eoc.c **** *
 157:.\Generated_Source\PSoC5/isr_eoc.c **** * Parameters:  
 158:.\Generated_Source\PSoC5/isr_eoc.c **** *
 159:.\Generated_Source\PSoC5/isr_eoc.c **** * Return:
 160:.\Generated_Source\PSoC5/isr_eoc.c **** *   None
 161:.\Generated_Source\PSoC5/isr_eoc.c **** *
 162:.\Generated_Source\PSoC5/isr_eoc.c **** *******************************************************************************/
 163:.\Generated_Source\PSoC5/isr_eoc.c **** CY_ISR(isr_eoc_Interrupt)
 164:.\Generated_Source\PSoC5/isr_eoc.c **** {
 137              		.loc 1 164 0
 138              		.cfi_startproc
 139              		@ args = 0, pretend = 0, frame = 0
 140              		@ frame_needed = 1, uses_anonymous_args = 0
 141 0000 80B5     		push	{r7, lr}
 142              		.cfi_def_cfa_offset 8
 143              		.cfi_offset 7, -8
 144              		.cfi_offset 14, -4
 145 0002 00AF     		add	r7, sp, #0
 146              		.cfi_def_cfa_register 7
 165:.\Generated_Source\PSoC5/isr_eoc.c ****     #ifdef isr_eoc_INTERRUPT_INTERRUPT_CALLBACK
 166:.\Generated_Source\PSoC5/isr_eoc.c ****         isr_eoc_Interrupt_InterruptCallback();
 167:.\Generated_Source\PSoC5/isr_eoc.c ****     #endif /* isr_eoc_INTERRUPT_INTERRUPT_CALLBACK */ 
 168:.\Generated_Source\PSoC5/isr_eoc.c **** 
 169:.\Generated_Source\PSoC5/isr_eoc.c ****     /*  Place your Interrupt code here. */
 170:.\Generated_Source\PSoC5/isr_eoc.c ****     /* `#START isr_eoc_Interrupt` */
 171:.\Generated_Source\PSoC5/isr_eoc.c ****     adcvalue[0] = ADC_GetResult16(0);
 147              		.loc 1 171 0
 148 0004 0020     		movs	r0, #0
 149 0006 FFF7FEFF 		bl	ADC_GetResult16
 150 000a 0346     		mov	r3, r0
 151 000c 9AB2     		uxth	r2, r3
 152 000e 1B4B     		ldr	r3, .L9
 153 0010 1A80     		strh	r2, [r3]	@ movhi
 172:.\Generated_Source\PSoC5/isr_eoc.c ****     adcvalue[1] = ADC_GetResult16(1);
 154              		.loc 1 172 0
 155 0012 0120     		movs	r0, #1
 156 0014 FFF7FEFF 		bl	ADC_GetResult16
 157 0018 0346     		mov	r3, r0
 158 001a 9AB2     		uxth	r2, r3
 159 001c 174B     		ldr	r3, .L9
 160 001e 5A80     		strh	r2, [r3, #2]	@ movhi
 173:.\Generated_Source\PSoC5/isr_eoc.c ****     adcvalue[2] = ADC_GetResult16(2);
 161              		.loc 1 173 0
 162 0020 0220     		movs	r0, #2
 163 0022 FFF7FEFF 		bl	ADC_GetResult16
 164 0026 0346     		mov	r3, r0
 165 0028 9AB2     		uxth	r2, r3
 166 002a 144B     		ldr	r3, .L9
 167 002c 9A80     		strh	r2, [r3, #4]	@ movhi
 174:.\Generated_Source\PSoC5/isr_eoc.c ****     adcvalue[3] = ADC_GetResult16(3);
 168              		.loc 1 174 0
ARM GAS  C:\Users\rdso323\AppData\Local\Temp\cckxmOWR.s 			page 7


 169 002e 0320     		movs	r0, #3
 170 0030 FFF7FEFF 		bl	ADC_GetResult16
 171 0034 0346     		mov	r3, r0
 172 0036 9AB2     		uxth	r2, r3
 173 0038 104B     		ldr	r3, .L9
 174 003a DA80     		strh	r2, [r3, #6]	@ movhi
 175:.\Generated_Source\PSoC5/isr_eoc.c ****     adcvalue[4] = ADC_GetResult16(4);
 175              		.loc 1 175 0
 176 003c 0420     		movs	r0, #4
 177 003e FFF7FEFF 		bl	ADC_GetResult16
 178 0042 0346     		mov	r3, r0
 179 0044 9AB2     		uxth	r2, r3
 180 0046 0D4B     		ldr	r3, .L9
 181 0048 1A81     		strh	r2, [r3, #8]	@ movhi
 176:.\Generated_Source\PSoC5/isr_eoc.c ****     adcvalue[5] = ADC_GetResult16(5);
 182              		.loc 1 176 0
 183 004a 0520     		movs	r0, #5
 184 004c FFF7FEFF 		bl	ADC_GetResult16
 185 0050 0346     		mov	r3, r0
 186 0052 9AB2     		uxth	r2, r3
 187 0054 094B     		ldr	r3, .L9
 188 0056 5A81     		strh	r2, [r3, #10]	@ movhi
 177:.\Generated_Source\PSoC5/isr_eoc.c ****     adcvalue[6] = ADC_GetResult16(6);
 189              		.loc 1 177 0
 190 0058 0620     		movs	r0, #6
 191 005a FFF7FEFF 		bl	ADC_GetResult16
 192 005e 0346     		mov	r3, r0
 193 0060 9AB2     		uxth	r2, r3
 194 0062 064B     		ldr	r3, .L9
 195 0064 9A81     		strh	r2, [r3, #12]	@ movhi
 178:.\Generated_Source\PSoC5/isr_eoc.c ****     adcvalue[7] = ADC_GetResult16(7);
 196              		.loc 1 178 0
 197 0066 0720     		movs	r0, #7
 198 0068 FFF7FEFF 		bl	ADC_GetResult16
 199 006c 0346     		mov	r3, r0
 200 006e 9AB2     		uxth	r2, r3
 201 0070 024B     		ldr	r3, .L9
 202 0072 DA81     		strh	r2, [r3, #14]	@ movhi
 179:.\Generated_Source\PSoC5/isr_eoc.c ****     dataready_flag = 1;
 203              		.loc 1 179 0
 204 0074 024B     		ldr	r3, .L9+4
 205 0076 0122     		movs	r2, #1
 206 0078 1A70     		strb	r2, [r3]
 180:.\Generated_Source\PSoC5/isr_eoc.c **** 
 181:.\Generated_Source\PSoC5/isr_eoc.c ****     /* `#END` */
 182:.\Generated_Source\PSoC5/isr_eoc.c **** }
 207              		.loc 1 182 0
 208 007a 80BD     		pop	{r7, pc}
 209              	.L10:
 210              		.align	2
 211              	.L9:
 212 007c 00000000 		.word	adcvalue
 213 0080 00000000 		.word	dataready_flag
 214              		.cfi_endproc
 215              	.LFE66:
 216              		.size	isr_eoc_Interrupt, .-isr_eoc_Interrupt
 217              		.section	.text.isr_eoc_SetVector,"ax",%progbits
ARM GAS  C:\Users\rdso323\AppData\Local\Temp\cckxmOWR.s 			page 8


 218              		.align	2
 219              		.global	isr_eoc_SetVector
 220              		.thumb
 221              		.thumb_func
 222              		.type	isr_eoc_SetVector, %function
 223              	isr_eoc_SetVector:
 224              	.LFB67:
 183:.\Generated_Source\PSoC5/isr_eoc.c **** 
 184:.\Generated_Source\PSoC5/isr_eoc.c **** 
 185:.\Generated_Source\PSoC5/isr_eoc.c **** /*******************************************************************************
 186:.\Generated_Source\PSoC5/isr_eoc.c **** * Function Name: isr_eoc_SetVector
 187:.\Generated_Source\PSoC5/isr_eoc.c **** ********************************************************************************
 188:.\Generated_Source\PSoC5/isr_eoc.c **** *
 189:.\Generated_Source\PSoC5/isr_eoc.c **** * Summary:
 190:.\Generated_Source\PSoC5/isr_eoc.c **** *   Change the ISR vector for the Interrupt. Note calling isr_eoc_Start
 191:.\Generated_Source\PSoC5/isr_eoc.c **** *   will override any effect this method would have had. To set the vector 
 192:.\Generated_Source\PSoC5/isr_eoc.c **** *   before the component has been started use isr_eoc_StartEx instead.
 193:.\Generated_Source\PSoC5/isr_eoc.c **** * 
 194:.\Generated_Source\PSoC5/isr_eoc.c **** *   When defining ISR functions, the CY_ISR and CY_ISR_PROTO macros should be 
 195:.\Generated_Source\PSoC5/isr_eoc.c **** *   used to provide consistent definition across compilers:
 196:.\Generated_Source\PSoC5/isr_eoc.c **** *
 197:.\Generated_Source\PSoC5/isr_eoc.c **** *   Function definition example:
 198:.\Generated_Source\PSoC5/isr_eoc.c **** *   CY_ISR(MyISR)
 199:.\Generated_Source\PSoC5/isr_eoc.c **** *   {
 200:.\Generated_Source\PSoC5/isr_eoc.c **** *   }
 201:.\Generated_Source\PSoC5/isr_eoc.c **** *
 202:.\Generated_Source\PSoC5/isr_eoc.c **** *   Function prototype example:
 203:.\Generated_Source\PSoC5/isr_eoc.c **** *     CY_ISR_PROTO(MyISR);
 204:.\Generated_Source\PSoC5/isr_eoc.c **** *
 205:.\Generated_Source\PSoC5/isr_eoc.c **** * Parameters:
 206:.\Generated_Source\PSoC5/isr_eoc.c **** *   address: Address of the ISR to set in the interrupt vector table.
 207:.\Generated_Source\PSoC5/isr_eoc.c **** *
 208:.\Generated_Source\PSoC5/isr_eoc.c **** * Return:
 209:.\Generated_Source\PSoC5/isr_eoc.c **** *   None
 210:.\Generated_Source\PSoC5/isr_eoc.c **** *
 211:.\Generated_Source\PSoC5/isr_eoc.c **** *******************************************************************************/
 212:.\Generated_Source\PSoC5/isr_eoc.c **** void isr_eoc_SetVector(cyisraddress address)
 213:.\Generated_Source\PSoC5/isr_eoc.c **** {
 225              		.loc 1 213 0
 226              		.cfi_startproc
 227              		@ args = 0, pretend = 0, frame = 16
 228              		@ frame_needed = 1, uses_anonymous_args = 0
 229              		@ link register save eliminated.
 230 0000 80B4     		push	{r7}
 231              		.cfi_def_cfa_offset 4
 232              		.cfi_offset 7, -4
 233 0002 85B0     		sub	sp, sp, #20
 234              		.cfi_def_cfa_offset 24
 235 0004 00AF     		add	r7, sp, #0
 236              		.cfi_def_cfa_register 7
 237 0006 7860     		str	r0, [r7, #4]
 214:.\Generated_Source\PSoC5/isr_eoc.c ****     cyisraddress * ramVectorTable;
 215:.\Generated_Source\PSoC5/isr_eoc.c **** 
 216:.\Generated_Source\PSoC5/isr_eoc.c ****     ramVectorTable = (cyisraddress *) *CYINT_VECT_TABLE;
 238              		.loc 1 216 0
 239 0008 054B     		ldr	r3, .L12
 240 000a 1B68     		ldr	r3, [r3]
ARM GAS  C:\Users\rdso323\AppData\Local\Temp\cckxmOWR.s 			page 9


 241 000c FB60     		str	r3, [r7, #12]
 217:.\Generated_Source\PSoC5/isr_eoc.c **** 
 218:.\Generated_Source\PSoC5/isr_eoc.c ****     ramVectorTable[CYINT_IRQ_BASE + (uint32)isr_eoc__INTC_NUMBER] = address;
 242              		.loc 1 218 0
 243 000e FB68     		ldr	r3, [r7, #12]
 244 0010 5C33     		adds	r3, r3, #92
 245 0012 7A68     		ldr	r2, [r7, #4]
 246 0014 1A60     		str	r2, [r3]
 219:.\Generated_Source\PSoC5/isr_eoc.c **** }
 247              		.loc 1 219 0
 248 0016 1437     		adds	r7, r7, #20
 249              		.cfi_def_cfa_offset 4
 250 0018 BD46     		mov	sp, r7
 251              		.cfi_def_cfa_register 13
 252              		@ sp needed
 253 001a 5DF8047B 		ldr	r7, [sp], #4
 254              		.cfi_restore 7
 255              		.cfi_def_cfa_offset 0
 256 001e 7047     		bx	lr
 257              	.L13:
 258              		.align	2
 259              	.L12:
 260 0020 08ED00E0 		.word	-536810232
 261              		.cfi_endproc
 262              	.LFE67:
 263              		.size	isr_eoc_SetVector, .-isr_eoc_SetVector
 264              		.section	.text.isr_eoc_GetVector,"ax",%progbits
 265              		.align	2
 266              		.global	isr_eoc_GetVector
 267              		.thumb
 268              		.thumb_func
 269              		.type	isr_eoc_GetVector, %function
 270              	isr_eoc_GetVector:
 271              	.LFB68:
 220:.\Generated_Source\PSoC5/isr_eoc.c **** 
 221:.\Generated_Source\PSoC5/isr_eoc.c **** 
 222:.\Generated_Source\PSoC5/isr_eoc.c **** /*******************************************************************************
 223:.\Generated_Source\PSoC5/isr_eoc.c **** * Function Name: isr_eoc_GetVector
 224:.\Generated_Source\PSoC5/isr_eoc.c **** ********************************************************************************
 225:.\Generated_Source\PSoC5/isr_eoc.c **** *
 226:.\Generated_Source\PSoC5/isr_eoc.c **** * Summary:
 227:.\Generated_Source\PSoC5/isr_eoc.c **** *   Gets the "address" of the current ISR vector for the Interrupt.
 228:.\Generated_Source\PSoC5/isr_eoc.c **** *
 229:.\Generated_Source\PSoC5/isr_eoc.c **** * Parameters:
 230:.\Generated_Source\PSoC5/isr_eoc.c **** *   None
 231:.\Generated_Source\PSoC5/isr_eoc.c **** *
 232:.\Generated_Source\PSoC5/isr_eoc.c **** * Return:
 233:.\Generated_Source\PSoC5/isr_eoc.c **** *   Address of the ISR in the interrupt vector table.
 234:.\Generated_Source\PSoC5/isr_eoc.c **** *
 235:.\Generated_Source\PSoC5/isr_eoc.c **** *******************************************************************************/
 236:.\Generated_Source\PSoC5/isr_eoc.c **** cyisraddress isr_eoc_GetVector(void)
 237:.\Generated_Source\PSoC5/isr_eoc.c **** {
 272              		.loc 1 237 0
 273              		.cfi_startproc
 274              		@ args = 0, pretend = 0, frame = 8
 275              		@ frame_needed = 1, uses_anonymous_args = 0
 276              		@ link register save eliminated.
ARM GAS  C:\Users\rdso323\AppData\Local\Temp\cckxmOWR.s 			page 10


 277 0000 80B4     		push	{r7}
 278              		.cfi_def_cfa_offset 4
 279              		.cfi_offset 7, -4
 280 0002 83B0     		sub	sp, sp, #12
 281              		.cfi_def_cfa_offset 16
 282 0004 00AF     		add	r7, sp, #0
 283              		.cfi_def_cfa_register 7
 238:.\Generated_Source\PSoC5/isr_eoc.c ****     cyisraddress * ramVectorTable;
 239:.\Generated_Source\PSoC5/isr_eoc.c **** 
 240:.\Generated_Source\PSoC5/isr_eoc.c ****     ramVectorTable = (cyisraddress *) *CYINT_VECT_TABLE;
 284              		.loc 1 240 0
 285 0006 054B     		ldr	r3, .L16
 286 0008 1B68     		ldr	r3, [r3]
 287 000a 7B60     		str	r3, [r7, #4]
 241:.\Generated_Source\PSoC5/isr_eoc.c **** 
 242:.\Generated_Source\PSoC5/isr_eoc.c ****     return ramVectorTable[CYINT_IRQ_BASE + (uint32)isr_eoc__INTC_NUMBER];
 288              		.loc 1 242 0
 289 000c 7B68     		ldr	r3, [r7, #4]
 290 000e DB6D     		ldr	r3, [r3, #92]
 243:.\Generated_Source\PSoC5/isr_eoc.c **** }
 291              		.loc 1 243 0
 292 0010 1846     		mov	r0, r3
 293 0012 0C37     		adds	r7, r7, #12
 294              		.cfi_def_cfa_offset 4
 295 0014 BD46     		mov	sp, r7
 296              		.cfi_def_cfa_register 13
 297              		@ sp needed
 298 0016 5DF8047B 		ldr	r7, [sp], #4
 299              		.cfi_restore 7
 300              		.cfi_def_cfa_offset 0
 301 001a 7047     		bx	lr
 302              	.L17:
 303              		.align	2
 304              	.L16:
 305 001c 08ED00E0 		.word	-536810232
 306              		.cfi_endproc
 307              	.LFE68:
 308              		.size	isr_eoc_GetVector, .-isr_eoc_GetVector
 309              		.section	.text.isr_eoc_SetPriority,"ax",%progbits
 310              		.align	2
 311              		.global	isr_eoc_SetPriority
 312              		.thumb
 313              		.thumb_func
 314              		.type	isr_eoc_SetPriority, %function
 315              	isr_eoc_SetPriority:
 316              	.LFB69:
 244:.\Generated_Source\PSoC5/isr_eoc.c **** 
 245:.\Generated_Source\PSoC5/isr_eoc.c **** 
 246:.\Generated_Source\PSoC5/isr_eoc.c **** /*******************************************************************************
 247:.\Generated_Source\PSoC5/isr_eoc.c **** * Function Name: isr_eoc_SetPriority
 248:.\Generated_Source\PSoC5/isr_eoc.c **** ********************************************************************************
 249:.\Generated_Source\PSoC5/isr_eoc.c **** *
 250:.\Generated_Source\PSoC5/isr_eoc.c **** * Summary:
 251:.\Generated_Source\PSoC5/isr_eoc.c **** *   Sets the Priority of the Interrupt. 
 252:.\Generated_Source\PSoC5/isr_eoc.c **** *
 253:.\Generated_Source\PSoC5/isr_eoc.c **** *   Note calling isr_eoc_Start or isr_eoc_StartEx will 
 254:.\Generated_Source\PSoC5/isr_eoc.c **** *   override any effect this API would have had. This API should only be called
ARM GAS  C:\Users\rdso323\AppData\Local\Temp\cckxmOWR.s 			page 11


 255:.\Generated_Source\PSoC5/isr_eoc.c **** *   after isr_eoc_Start or isr_eoc_StartEx has been called. 
 256:.\Generated_Source\PSoC5/isr_eoc.c **** *   To set the initial priority for the component, use the Design-Wide Resources
 257:.\Generated_Source\PSoC5/isr_eoc.c **** *   Interrupt Editor.
 258:.\Generated_Source\PSoC5/isr_eoc.c **** *
 259:.\Generated_Source\PSoC5/isr_eoc.c **** *   Note This API has no effect on Non-maskable interrupt NMI).
 260:.\Generated_Source\PSoC5/isr_eoc.c **** *
 261:.\Generated_Source\PSoC5/isr_eoc.c **** * Parameters:
 262:.\Generated_Source\PSoC5/isr_eoc.c **** *   priority: Priority of the interrupt, 0 being the highest priority
 263:.\Generated_Source\PSoC5/isr_eoc.c **** *             PSoC 3 and PSoC 5LP: Priority is from 0 to 7.
 264:.\Generated_Source\PSoC5/isr_eoc.c **** *             PSoC 4: Priority is from 0 to 3.
 265:.\Generated_Source\PSoC5/isr_eoc.c **** *
 266:.\Generated_Source\PSoC5/isr_eoc.c **** * Return:
 267:.\Generated_Source\PSoC5/isr_eoc.c **** *   None
 268:.\Generated_Source\PSoC5/isr_eoc.c **** *
 269:.\Generated_Source\PSoC5/isr_eoc.c **** *******************************************************************************/
 270:.\Generated_Source\PSoC5/isr_eoc.c **** void isr_eoc_SetPriority(uint8 priority)
 271:.\Generated_Source\PSoC5/isr_eoc.c **** {
 317              		.loc 1 271 0
 318              		.cfi_startproc
 319              		@ args = 0, pretend = 0, frame = 8
 320              		@ frame_needed = 1, uses_anonymous_args = 0
 321              		@ link register save eliminated.
 322 0000 80B4     		push	{r7}
 323              		.cfi_def_cfa_offset 4
 324              		.cfi_offset 7, -4
 325 0002 83B0     		sub	sp, sp, #12
 326              		.cfi_def_cfa_offset 16
 327 0004 00AF     		add	r7, sp, #0
 328              		.cfi_def_cfa_register 7
 329 0006 0346     		mov	r3, r0
 330 0008 FB71     		strb	r3, [r7, #7]
 272:.\Generated_Source\PSoC5/isr_eoc.c ****     *isr_eoc_INTC_PRIOR = priority << 5;
 331              		.loc 1 272 0
 332 000a 054A     		ldr	r2, .L19
 333 000c FB79     		ldrb	r3, [r7, #7]
 334 000e 5B01     		lsls	r3, r3, #5
 335 0010 DBB2     		uxtb	r3, r3
 336 0012 1370     		strb	r3, [r2]
 273:.\Generated_Source\PSoC5/isr_eoc.c **** }
 337              		.loc 1 273 0
 338 0014 0C37     		adds	r7, r7, #12
 339              		.cfi_def_cfa_offset 4
 340 0016 BD46     		mov	sp, r7
 341              		.cfi_def_cfa_register 13
 342              		@ sp needed
 343 0018 5DF8047B 		ldr	r7, [sp], #4
 344              		.cfi_restore 7
 345              		.cfi_def_cfa_offset 0
 346 001c 7047     		bx	lr
 347              	.L20:
 348 001e 00BF     		.align	2
 349              	.L19:
 350 0020 07E400E0 		.word	-536812537
 351              		.cfi_endproc
 352              	.LFE69:
 353              		.size	isr_eoc_SetPriority, .-isr_eoc_SetPriority
 354              		.section	.text.isr_eoc_GetPriority,"ax",%progbits
ARM GAS  C:\Users\rdso323\AppData\Local\Temp\cckxmOWR.s 			page 12


 355              		.align	2
 356              		.global	isr_eoc_GetPriority
 357              		.thumb
 358              		.thumb_func
 359              		.type	isr_eoc_GetPriority, %function
 360              	isr_eoc_GetPriority:
 361              	.LFB70:
 274:.\Generated_Source\PSoC5/isr_eoc.c **** 
 275:.\Generated_Source\PSoC5/isr_eoc.c **** 
 276:.\Generated_Source\PSoC5/isr_eoc.c **** /*******************************************************************************
 277:.\Generated_Source\PSoC5/isr_eoc.c **** * Function Name: isr_eoc_GetPriority
 278:.\Generated_Source\PSoC5/isr_eoc.c **** ********************************************************************************
 279:.\Generated_Source\PSoC5/isr_eoc.c **** *
 280:.\Generated_Source\PSoC5/isr_eoc.c **** * Summary:
 281:.\Generated_Source\PSoC5/isr_eoc.c **** *   Gets the Priority of the Interrupt.
 282:.\Generated_Source\PSoC5/isr_eoc.c **** *
 283:.\Generated_Source\PSoC5/isr_eoc.c **** * Parameters:
 284:.\Generated_Source\PSoC5/isr_eoc.c **** *   None
 285:.\Generated_Source\PSoC5/isr_eoc.c **** *
 286:.\Generated_Source\PSoC5/isr_eoc.c **** * Return:
 287:.\Generated_Source\PSoC5/isr_eoc.c **** *   Priority of the interrupt, 0 being the highest priority
 288:.\Generated_Source\PSoC5/isr_eoc.c **** *    PSoC 3 and PSoC 5LP: Priority is from 0 to 7.
 289:.\Generated_Source\PSoC5/isr_eoc.c **** *    PSoC 4: Priority is from 0 to 3.
 290:.\Generated_Source\PSoC5/isr_eoc.c **** *
 291:.\Generated_Source\PSoC5/isr_eoc.c **** *******************************************************************************/
 292:.\Generated_Source\PSoC5/isr_eoc.c **** uint8 isr_eoc_GetPriority(void)
 293:.\Generated_Source\PSoC5/isr_eoc.c **** {
 362              		.loc 1 293 0
 363              		.cfi_startproc
 364              		@ args = 0, pretend = 0, frame = 8
 365              		@ frame_needed = 1, uses_anonymous_args = 0
 366              		@ link register save eliminated.
 367 0000 80B4     		push	{r7}
 368              		.cfi_def_cfa_offset 4
 369              		.cfi_offset 7, -4
 370 0002 83B0     		sub	sp, sp, #12
 371              		.cfi_def_cfa_offset 16
 372 0004 00AF     		add	r7, sp, #0
 373              		.cfi_def_cfa_register 7
 294:.\Generated_Source\PSoC5/isr_eoc.c ****     uint8 priority;
 295:.\Generated_Source\PSoC5/isr_eoc.c **** 
 296:.\Generated_Source\PSoC5/isr_eoc.c **** 
 297:.\Generated_Source\PSoC5/isr_eoc.c ****     priority = *isr_eoc_INTC_PRIOR >> 5;
 374              		.loc 1 297 0
 375 0006 064B     		ldr	r3, .L23
 376 0008 1B78     		ldrb	r3, [r3]
 377 000a DBB2     		uxtb	r3, r3
 378 000c 5B09     		lsrs	r3, r3, #5
 379 000e FB71     		strb	r3, [r7, #7]
 298:.\Generated_Source\PSoC5/isr_eoc.c **** 
 299:.\Generated_Source\PSoC5/isr_eoc.c ****     return priority;
 380              		.loc 1 299 0
 381 0010 FB79     		ldrb	r3, [r7, #7]	@ zero_extendqisi2
 300:.\Generated_Source\PSoC5/isr_eoc.c **** }
 382              		.loc 1 300 0
 383 0012 1846     		mov	r0, r3
 384 0014 0C37     		adds	r7, r7, #12
ARM GAS  C:\Users\rdso323\AppData\Local\Temp\cckxmOWR.s 			page 13


 385              		.cfi_def_cfa_offset 4
 386 0016 BD46     		mov	sp, r7
 387              		.cfi_def_cfa_register 13
 388              		@ sp needed
 389 0018 5DF8047B 		ldr	r7, [sp], #4
 390              		.cfi_restore 7
 391              		.cfi_def_cfa_offset 0
 392 001c 7047     		bx	lr
 393              	.L24:
 394 001e 00BF     		.align	2
 395              	.L23:
 396 0020 07E400E0 		.word	-536812537
 397              		.cfi_endproc
 398              	.LFE70:
 399              		.size	isr_eoc_GetPriority, .-isr_eoc_GetPriority
 400              		.section	.text.isr_eoc_Enable,"ax",%progbits
 401              		.align	2
 402              		.global	isr_eoc_Enable
 403              		.thumb
 404              		.thumb_func
 405              		.type	isr_eoc_Enable, %function
 406              	isr_eoc_Enable:
 407              	.LFB71:
 301:.\Generated_Source\PSoC5/isr_eoc.c **** 
 302:.\Generated_Source\PSoC5/isr_eoc.c **** 
 303:.\Generated_Source\PSoC5/isr_eoc.c **** /*******************************************************************************
 304:.\Generated_Source\PSoC5/isr_eoc.c **** * Function Name: isr_eoc_Enable
 305:.\Generated_Source\PSoC5/isr_eoc.c **** ********************************************************************************
 306:.\Generated_Source\PSoC5/isr_eoc.c **** *
 307:.\Generated_Source\PSoC5/isr_eoc.c **** * Summary:
 308:.\Generated_Source\PSoC5/isr_eoc.c **** *   Enables the interrupt to the interrupt controller. Do not call this function
 309:.\Generated_Source\PSoC5/isr_eoc.c **** *   unless ISR_Start() has been called or the functionality of the ISR_Start() 
 310:.\Generated_Source\PSoC5/isr_eoc.c **** *   function, which sets the vector and the priority, has been called.
 311:.\Generated_Source\PSoC5/isr_eoc.c **** *
 312:.\Generated_Source\PSoC5/isr_eoc.c **** * Parameters:
 313:.\Generated_Source\PSoC5/isr_eoc.c **** *   None
 314:.\Generated_Source\PSoC5/isr_eoc.c **** *
 315:.\Generated_Source\PSoC5/isr_eoc.c **** * Return:
 316:.\Generated_Source\PSoC5/isr_eoc.c **** *   None
 317:.\Generated_Source\PSoC5/isr_eoc.c **** *
 318:.\Generated_Source\PSoC5/isr_eoc.c **** *******************************************************************************/
 319:.\Generated_Source\PSoC5/isr_eoc.c **** void isr_eoc_Enable(void)
 320:.\Generated_Source\PSoC5/isr_eoc.c **** {
 408              		.loc 1 320 0
 409              		.cfi_startproc
 410              		@ args = 0, pretend = 0, frame = 0
 411              		@ frame_needed = 1, uses_anonymous_args = 0
 412              		@ link register save eliminated.
 413 0000 80B4     		push	{r7}
 414              		.cfi_def_cfa_offset 4
 415              		.cfi_offset 7, -4
 416 0002 00AF     		add	r7, sp, #0
 417              		.cfi_def_cfa_register 7
 321:.\Generated_Source\PSoC5/isr_eoc.c ****     /* Enable the general interrupt. */
 322:.\Generated_Source\PSoC5/isr_eoc.c ****     *isr_eoc_INTC_SET_EN = isr_eoc__INTC_MASK;
 418              		.loc 1 322 0
 419 0004 034B     		ldr	r3, .L26
ARM GAS  C:\Users\rdso323\AppData\Local\Temp\cckxmOWR.s 			page 14


 420 0006 8022     		movs	r2, #128
 421 0008 1A60     		str	r2, [r3]
 323:.\Generated_Source\PSoC5/isr_eoc.c **** }
 422              		.loc 1 323 0
 423 000a BD46     		mov	sp, r7
 424              		.cfi_def_cfa_register 13
 425              		@ sp needed
 426 000c 5DF8047B 		ldr	r7, [sp], #4
 427              		.cfi_restore 7
 428              		.cfi_def_cfa_offset 0
 429 0010 7047     		bx	lr
 430              	.L27:
 431 0012 00BF     		.align	2
 432              	.L26:
 433 0014 00E100E0 		.word	-536813312
 434              		.cfi_endproc
 435              	.LFE71:
 436              		.size	isr_eoc_Enable, .-isr_eoc_Enable
 437              		.section	.text.isr_eoc_GetState,"ax",%progbits
 438              		.align	2
 439              		.global	isr_eoc_GetState
 440              		.thumb
 441              		.thumb_func
 442              		.type	isr_eoc_GetState, %function
 443              	isr_eoc_GetState:
 444              	.LFB72:
 324:.\Generated_Source\PSoC5/isr_eoc.c **** 
 325:.\Generated_Source\PSoC5/isr_eoc.c **** 
 326:.\Generated_Source\PSoC5/isr_eoc.c **** /*******************************************************************************
 327:.\Generated_Source\PSoC5/isr_eoc.c **** * Function Name: isr_eoc_GetState
 328:.\Generated_Source\PSoC5/isr_eoc.c **** ********************************************************************************
 329:.\Generated_Source\PSoC5/isr_eoc.c **** *
 330:.\Generated_Source\PSoC5/isr_eoc.c **** * Summary:
 331:.\Generated_Source\PSoC5/isr_eoc.c **** *   Gets the state (enabled, disabled) of the Interrupt.
 332:.\Generated_Source\PSoC5/isr_eoc.c **** *
 333:.\Generated_Source\PSoC5/isr_eoc.c **** * Parameters:
 334:.\Generated_Source\PSoC5/isr_eoc.c **** *   None
 335:.\Generated_Source\PSoC5/isr_eoc.c **** *
 336:.\Generated_Source\PSoC5/isr_eoc.c **** * Return:
 337:.\Generated_Source\PSoC5/isr_eoc.c **** *   1 if enabled, 0 if disabled.
 338:.\Generated_Source\PSoC5/isr_eoc.c **** *
 339:.\Generated_Source\PSoC5/isr_eoc.c **** *******************************************************************************/
 340:.\Generated_Source\PSoC5/isr_eoc.c **** uint8 isr_eoc_GetState(void)
 341:.\Generated_Source\PSoC5/isr_eoc.c **** {
 445              		.loc 1 341 0
 446              		.cfi_startproc
 447              		@ args = 0, pretend = 0, frame = 0
 448              		@ frame_needed = 1, uses_anonymous_args = 0
 449              		@ link register save eliminated.
 450 0000 80B4     		push	{r7}
 451              		.cfi_def_cfa_offset 4
 452              		.cfi_offset 7, -4
 453 0002 00AF     		add	r7, sp, #0
 454              		.cfi_def_cfa_register 7
 342:.\Generated_Source\PSoC5/isr_eoc.c ****     /* Get the state of the general interrupt. */
 343:.\Generated_Source\PSoC5/isr_eoc.c ****     return ((*isr_eoc_INTC_SET_EN & (uint32)isr_eoc__INTC_MASK) != 0u) ? 1u:0u;
 455              		.loc 1 343 0
ARM GAS  C:\Users\rdso323\AppData\Local\Temp\cckxmOWR.s 			page 15


 456 0004 064B     		ldr	r3, .L32
 457 0006 1B68     		ldr	r3, [r3]
 458 0008 03F08003 		and	r3, r3, #128
 459 000c 002B     		cmp	r3, #0
 460 000e 01D0     		beq	.L29
 461              		.loc 1 343 0 is_stmt 0 discriminator 1
 462 0010 0123     		movs	r3, #1
 463 0012 00E0     		b	.L30
 464              	.L29:
 465              		.loc 1 343 0 discriminator 2
 466 0014 0023     		movs	r3, #0
 467              	.L30:
 344:.\Generated_Source\PSoC5/isr_eoc.c **** }
 468              		.loc 1 344 0 is_stmt 1 discriminator 4
 469 0016 1846     		mov	r0, r3
 470 0018 BD46     		mov	sp, r7
 471              		.cfi_def_cfa_register 13
 472              		@ sp needed
 473 001a 5DF8047B 		ldr	r7, [sp], #4
 474              		.cfi_restore 7
 475              		.cfi_def_cfa_offset 0
 476 001e 7047     		bx	lr
 477              	.L33:
 478              		.align	2
 479              	.L32:
 480 0020 00E100E0 		.word	-536813312
 481              		.cfi_endproc
 482              	.LFE72:
 483              		.size	isr_eoc_GetState, .-isr_eoc_GetState
 484              		.section	.text.isr_eoc_Disable,"ax",%progbits
 485              		.align	2
 486              		.global	isr_eoc_Disable
 487              		.thumb
 488              		.thumb_func
 489              		.type	isr_eoc_Disable, %function
 490              	isr_eoc_Disable:
 491              	.LFB73:
 345:.\Generated_Source\PSoC5/isr_eoc.c **** 
 346:.\Generated_Source\PSoC5/isr_eoc.c **** 
 347:.\Generated_Source\PSoC5/isr_eoc.c **** /*******************************************************************************
 348:.\Generated_Source\PSoC5/isr_eoc.c **** * Function Name: isr_eoc_Disable
 349:.\Generated_Source\PSoC5/isr_eoc.c **** ********************************************************************************
 350:.\Generated_Source\PSoC5/isr_eoc.c **** *
 351:.\Generated_Source\PSoC5/isr_eoc.c **** * Summary:
 352:.\Generated_Source\PSoC5/isr_eoc.c **** *   Disables the Interrupt in the interrupt controller.
 353:.\Generated_Source\PSoC5/isr_eoc.c **** *
 354:.\Generated_Source\PSoC5/isr_eoc.c **** * Parameters:
 355:.\Generated_Source\PSoC5/isr_eoc.c **** *   None
 356:.\Generated_Source\PSoC5/isr_eoc.c **** *
 357:.\Generated_Source\PSoC5/isr_eoc.c **** * Return:
 358:.\Generated_Source\PSoC5/isr_eoc.c **** *   None
 359:.\Generated_Source\PSoC5/isr_eoc.c **** *
 360:.\Generated_Source\PSoC5/isr_eoc.c **** *******************************************************************************/
 361:.\Generated_Source\PSoC5/isr_eoc.c **** void isr_eoc_Disable(void)
 362:.\Generated_Source\PSoC5/isr_eoc.c **** {
 492              		.loc 1 362 0
 493              		.cfi_startproc
ARM GAS  C:\Users\rdso323\AppData\Local\Temp\cckxmOWR.s 			page 16


 494              		@ args = 0, pretend = 0, frame = 0
 495              		@ frame_needed = 1, uses_anonymous_args = 0
 496              		@ link register save eliminated.
 497 0000 80B4     		push	{r7}
 498              		.cfi_def_cfa_offset 4
 499              		.cfi_offset 7, -4
 500 0002 00AF     		add	r7, sp, #0
 501              		.cfi_def_cfa_register 7
 363:.\Generated_Source\PSoC5/isr_eoc.c ****     /* Disable the general interrupt. */
 364:.\Generated_Source\PSoC5/isr_eoc.c ****     *isr_eoc_INTC_CLR_EN = isr_eoc__INTC_MASK;
 502              		.loc 1 364 0
 503 0004 034B     		ldr	r3, .L35
 504 0006 8022     		movs	r2, #128
 505 0008 1A60     		str	r2, [r3]
 365:.\Generated_Source\PSoC5/isr_eoc.c **** }
 506              		.loc 1 365 0
 507 000a BD46     		mov	sp, r7
 508              		.cfi_def_cfa_register 13
 509              		@ sp needed
 510 000c 5DF8047B 		ldr	r7, [sp], #4
 511              		.cfi_restore 7
 512              		.cfi_def_cfa_offset 0
 513 0010 7047     		bx	lr
 514              	.L36:
 515 0012 00BF     		.align	2
 516              	.L35:
 517 0014 80E100E0 		.word	-536813184
 518              		.cfi_endproc
 519              	.LFE73:
 520              		.size	isr_eoc_Disable, .-isr_eoc_Disable
 521              		.section	.text.isr_eoc_SetPending,"ax",%progbits
 522              		.align	2
 523              		.global	isr_eoc_SetPending
 524              		.thumb
 525              		.thumb_func
 526              		.type	isr_eoc_SetPending, %function
 527              	isr_eoc_SetPending:
 528              	.LFB74:
 366:.\Generated_Source\PSoC5/isr_eoc.c **** 
 367:.\Generated_Source\PSoC5/isr_eoc.c **** 
 368:.\Generated_Source\PSoC5/isr_eoc.c **** /*******************************************************************************
 369:.\Generated_Source\PSoC5/isr_eoc.c **** * Function Name: isr_eoc_SetPending
 370:.\Generated_Source\PSoC5/isr_eoc.c **** ********************************************************************************
 371:.\Generated_Source\PSoC5/isr_eoc.c **** *
 372:.\Generated_Source\PSoC5/isr_eoc.c **** * Summary:
 373:.\Generated_Source\PSoC5/isr_eoc.c **** *   Causes the Interrupt to enter the pending state, a software method of
 374:.\Generated_Source\PSoC5/isr_eoc.c **** *   generating the interrupt.
 375:.\Generated_Source\PSoC5/isr_eoc.c **** *
 376:.\Generated_Source\PSoC5/isr_eoc.c **** * Parameters:
 377:.\Generated_Source\PSoC5/isr_eoc.c **** *   None
 378:.\Generated_Source\PSoC5/isr_eoc.c **** *
 379:.\Generated_Source\PSoC5/isr_eoc.c **** * Return:
 380:.\Generated_Source\PSoC5/isr_eoc.c **** *   None
 381:.\Generated_Source\PSoC5/isr_eoc.c **** *
 382:.\Generated_Source\PSoC5/isr_eoc.c **** * Side Effects:
 383:.\Generated_Source\PSoC5/isr_eoc.c **** *   If interrupts are enabled and the interrupt is set up properly, the ISR is
 384:.\Generated_Source\PSoC5/isr_eoc.c **** *   entered (depending on the priority of this interrupt and other pending 
ARM GAS  C:\Users\rdso323\AppData\Local\Temp\cckxmOWR.s 			page 17


 385:.\Generated_Source\PSoC5/isr_eoc.c **** *   interrupts).
 386:.\Generated_Source\PSoC5/isr_eoc.c **** *
 387:.\Generated_Source\PSoC5/isr_eoc.c **** *******************************************************************************/
 388:.\Generated_Source\PSoC5/isr_eoc.c **** void isr_eoc_SetPending(void)
 389:.\Generated_Source\PSoC5/isr_eoc.c **** {
 529              		.loc 1 389 0
 530              		.cfi_startproc
 531              		@ args = 0, pretend = 0, frame = 0
 532              		@ frame_needed = 1, uses_anonymous_args = 0
 533              		@ link register save eliminated.
 534 0000 80B4     		push	{r7}
 535              		.cfi_def_cfa_offset 4
 536              		.cfi_offset 7, -4
 537 0002 00AF     		add	r7, sp, #0
 538              		.cfi_def_cfa_register 7
 390:.\Generated_Source\PSoC5/isr_eoc.c ****     *isr_eoc_INTC_SET_PD = isr_eoc__INTC_MASK;
 539              		.loc 1 390 0
 540 0004 034B     		ldr	r3, .L38
 541 0006 8022     		movs	r2, #128
 542 0008 1A60     		str	r2, [r3]
 391:.\Generated_Source\PSoC5/isr_eoc.c **** }
 543              		.loc 1 391 0
 544 000a BD46     		mov	sp, r7
 545              		.cfi_def_cfa_register 13
 546              		@ sp needed
 547 000c 5DF8047B 		ldr	r7, [sp], #4
 548              		.cfi_restore 7
 549              		.cfi_def_cfa_offset 0
 550 0010 7047     		bx	lr
 551              	.L39:
 552 0012 00BF     		.align	2
 553              	.L38:
 554 0014 00E200E0 		.word	-536813056
 555              		.cfi_endproc
 556              	.LFE74:
 557              		.size	isr_eoc_SetPending, .-isr_eoc_SetPending
 558              		.section	.text.isr_eoc_ClearPending,"ax",%progbits
 559              		.align	2
 560              		.global	isr_eoc_ClearPending
 561              		.thumb
 562              		.thumb_func
 563              		.type	isr_eoc_ClearPending, %function
 564              	isr_eoc_ClearPending:
 565              	.LFB75:
 392:.\Generated_Source\PSoC5/isr_eoc.c **** 
 393:.\Generated_Source\PSoC5/isr_eoc.c **** 
 394:.\Generated_Source\PSoC5/isr_eoc.c **** /*******************************************************************************
 395:.\Generated_Source\PSoC5/isr_eoc.c **** * Function Name: isr_eoc_ClearPending
 396:.\Generated_Source\PSoC5/isr_eoc.c **** ********************************************************************************
 397:.\Generated_Source\PSoC5/isr_eoc.c **** *
 398:.\Generated_Source\PSoC5/isr_eoc.c **** * Summary:
 399:.\Generated_Source\PSoC5/isr_eoc.c **** *   Clears a pending interrupt in the interrupt controller.
 400:.\Generated_Source\PSoC5/isr_eoc.c **** *
 401:.\Generated_Source\PSoC5/isr_eoc.c **** *   Note Some interrupt sources are clear-on-read and require the block 
 402:.\Generated_Source\PSoC5/isr_eoc.c **** *   interrupt/status register to be read/cleared with the appropriate block API 
 403:.\Generated_Source\PSoC5/isr_eoc.c **** *   (GPIO, UART, and so on). Otherwise the ISR will continue to remain in 
 404:.\Generated_Source\PSoC5/isr_eoc.c **** *   pending state even though the interrupt itself is cleared using this API.
ARM GAS  C:\Users\rdso323\AppData\Local\Temp\cckxmOWR.s 			page 18


 405:.\Generated_Source\PSoC5/isr_eoc.c **** *
 406:.\Generated_Source\PSoC5/isr_eoc.c **** * Parameters:
 407:.\Generated_Source\PSoC5/isr_eoc.c **** *   None
 408:.\Generated_Source\PSoC5/isr_eoc.c **** *
 409:.\Generated_Source\PSoC5/isr_eoc.c **** * Return:
 410:.\Generated_Source\PSoC5/isr_eoc.c **** *   None
 411:.\Generated_Source\PSoC5/isr_eoc.c **** *
 412:.\Generated_Source\PSoC5/isr_eoc.c **** *******************************************************************************/
 413:.\Generated_Source\PSoC5/isr_eoc.c **** void isr_eoc_ClearPending(void)
 414:.\Generated_Source\PSoC5/isr_eoc.c **** {
 566              		.loc 1 414 0
 567              		.cfi_startproc
 568              		@ args = 0, pretend = 0, frame = 0
 569              		@ frame_needed = 1, uses_anonymous_args = 0
 570              		@ link register save eliminated.
 571 0000 80B4     		push	{r7}
 572              		.cfi_def_cfa_offset 4
 573              		.cfi_offset 7, -4
 574 0002 00AF     		add	r7, sp, #0
 575              		.cfi_def_cfa_register 7
 415:.\Generated_Source\PSoC5/isr_eoc.c ****     *isr_eoc_INTC_CLR_PD = isr_eoc__INTC_MASK;
 576              		.loc 1 415 0
 577 0004 034B     		ldr	r3, .L41
 578 0006 8022     		movs	r2, #128
 579 0008 1A60     		str	r2, [r3]
 416:.\Generated_Source\PSoC5/isr_eoc.c **** }
 580              		.loc 1 416 0
 581 000a BD46     		mov	sp, r7
 582              		.cfi_def_cfa_register 13
 583              		@ sp needed
 584 000c 5DF8047B 		ldr	r7, [sp], #4
 585              		.cfi_restore 7
 586              		.cfi_def_cfa_offset 0
 587 0010 7047     		bx	lr
 588              	.L42:
 589 0012 00BF     		.align	2
 590              	.L41:
 591 0014 80E200E0 		.word	-536812928
 592              		.cfi_endproc
 593              	.LFE75:
 594              		.size	isr_eoc_ClearPending, .-isr_eoc_ClearPending
 595              		.text
 596              	.Letext0:
 597              		.file 2 "c:\\program files (x86)\\cypress\\psoc creator\\3.3\\psoc creator\\import\\gnu\\arm\\4.9.
 598              		.file 3 "c:\\program files (x86)\\cypress\\psoc creator\\3.3\\psoc creator\\import\\gnu\\arm\\4.9.
 599              		.file 4 "Generated_Source\\PSoC5/cytypes.h"
 600              		.file 5 "Generated_Source\\PSoC5/core_cm3.h"